###############################################################################
#                                                                             #
#                                                       04/Mar/2012  11:29:59 #
# IAR ANSI C/C++ Compiler V6.10.1.22143/W32 EVALUATION for ARM                #
# Copyright 1999-2010 IAR Systems AB.                                         #
#                                                                             #
#    Cpu mode     =  thumb                                                    #
#    Endian       =  little                                                   #
#    Source file  =  F:\My Works\K60\Kinetis512\kinetis-sc\src\projects\gpio\ #
#                    gpio_k60.c                                               #
#    Command line =  "F:\My Works\K60\Kinetis512\kinetis-sc\src\projects\gpio #
#                    \gpio_k60.c" -D IAR -D TWR_K60N512 -lCN "F:\My           #
#                    Works\K60\Kinetis512\kinetis-sc\build\iar\gpio\RAM_32KB\ #
#                    List\" -lB "F:\My Works\K60\Kinetis512\kinetis-sc\build\ #
#                    iar\gpio\RAM_32KB\List\" -o "F:\My                       #
#                    Works\K60\Kinetis512\kinetis-sc\build\iar\gpio\RAM_32KB\ #
#                    Obj\" --no_cse --no_unroll --no_inline --no_code_motion  #
#                    --no_tbaa --no_clustering --no_scheduling --debug        #
#                    --endian=little --cpu=Cortex-M4 -e --fpu=None            #
#                    --dlib_config "D:\Program Files\IAR Systems\Embedded     #
#                    Workbench 6.0 Evaluation\arm\INC\c\DLib_Config_Normal.h" #
#                     -I "F:\My Works\K60\Kinetis512\kinetis-sc\build\iar\gpi #
#                    o\..\..\..\src\projects\gpio\" -I "F:\My                 #
#                    Works\K60\Kinetis512\kinetis-sc\build\iar\gpio\..\..\..\ #
#                    src\common\" -I "F:\My Works\K60\Kinetis512\kinetis-sc\b #
#                    uild\iar\gpio\..\..\..\src\cpu\" -I "F:\My               #
#                    Works\K60\Kinetis512\kinetis-sc\build\iar\gpio\..\..\..\ #
#                    src\cpu\headers\" -I "F:\My                              #
#                    Works\K60\Kinetis512\kinetis-sc\build\iar\gpio\..\..\..\ #
#                    src\drivers\uart\" -I "F:\My                             #
#                    Works\K60\Kinetis512\kinetis-sc\build\iar\gpio\..\..\..\ #
#                    src\drivers\mcg\" -I "F:\My                              #
#                    Works\K60\Kinetis512\kinetis-sc\build\iar\gpio\..\..\..\ #
#                    src\drivers\wdog\" -I "F:\My                             #
#                    Works\K60\Kinetis512\kinetis-sc\build\iar\gpio\..\..\..\ #
#                    src\platforms\" -I "F:\My Works\K60\Kinetis512\kinetis-s #
#                    c\build\iar\gpio\..\" -Ol --use_c++_inline               #
#    List file    =  F:\My Works\K60\Kinetis512\kinetis-sc\build\iar\gpio\RAM #
#                    _32KB\List\gpio_k60.lst                                  #
#    Object file  =  F:\My Works\K60\Kinetis512\kinetis-sc\build\iar\gpio\RAM #
#                    _32KB\Obj\gpio_k60.o                                     #
#                                                                             #
#                                                                             #
###############################################################################

F:\My Works\K60\Kinetis512\kinetis-sc\src\projects\gpio\gpio_k60.c
      1          /*
      2           * File:		gpio_k60.c
      3           * Purpose:		LED and Switch Example
      4           *
      5           *                      Configures GPIO for the LED and push buttons on the TWR-K60N512
      6           *                      Blue LED - On
      7           *                      Green LED - Toggles on/off
      8           *                      Orange LED - On if SW2 pressed
      9           *                      Yellow LED - On if SW1 pressed
     10           *
     11           *                      Also configures push buttons for falling IRQ's. ISR
     12           *                        configured in vector table in isr.h
     13           *
     14           
     15          
     16          
     17          #define GPIO_PIN_MASK            0x1Fu
     18          #define GPIO_PIN(x)              (((1)<<(x & GPIO_PIN_MASK)))*/
     19          
     20          #include "common.h"
     21          #include "MK60N512VMD100.h"
     22          #include "hw_sdhc.h"
     23          #include "diskio.h"
     24          #include "FAT32.h"
     25          #include "BMP.h"
     26          
     27          #define RowEnd  260
     28          #define LineEnd  100
     29          #define lie  60//51  
     30          
     31          //#define PTT  (GPIOD_PDIR & 0x00000100u)
     32          
     33          
     34          
     35          
     36          //位带操作,实现51类似的GPIO控制功能
     37          //具体实现思想,参考<<CM3权威指南>>第五章(87页~92页)
     38          //参考正点原子STM32不完全手册
     39          //IO口操作宏定义
     40          #define BITBAND(addr, bitnum) ((addr & 0xF0000000)+0x2000000+((addr &0xFFFFF)<<5)+(bitnum<<2)) 
     41          #define MEM_ADDR(addr)  *((volatile unsigned long  *)(addr)) 
     42          #define BIT_ADDR(addr, bitnum)   MEM_ADDR(BITBAND(addr, bitnum)) 
     43          //IO口地址映射
     44          #define GPIOA_ODR_Addr    (PTA_BASE_PTR+0) //0x4001080C 
     45          #define GPIOB_ODR_Addr    (PTB_BASE_PTR+0) //0x40010C0C 
     46          #define GPIOC_ODR_Addr    (PTC_BASE_PTR+0) //0x4001100C 
     47          #define GPIOD_ODR_Addr    (PTD_BASE_PTR+0) //0x4001140C 
     48          #define GPIOE_ODR_Addr    (PTE_BASE_PTR+0) //0x4001180C 
     49             
     50          
     51          #define GPIOA_IDR_Addr    (PTA_BASE_PTR+0x10) //0x40010808 
     52          #define GPIOB_IDR_Addr    (PTB_BASE_PTR+0x10) //0x40010C08 
     53          #define GPIOC_IDR_Addr    (PTC_BASE_PTR+0x10) //0x40011008 
     54          #define GPIOD_IDR_Addr    (PTD_BASE_PTR+0x10) //0x40011408 
     55          #define GPIOE_IDR_Addr    (PTE_BASE_PTR+0x10) //0x40011808 
     56          
     57          
     58          //IO口操作,只对单一的IO口!
     59          #define PAout(n)   BIT_ADDR(GPIOA_ODR_Addr,n)  //输出 
     60          #define PAin(n)    BIT_ADDR(GPIOA_IDR_Addr,n)  //输入 
     61            
     62          #define PBout(n)   BIT_ADDR(GPIOB_ODR_Addr,n)  //输出 
     63          #define PBin(n)    BIT_ADDR(GPIOB_IDR_Addr,n)  //输入 
     64          
     65          #define PCout(n)   BIT_ADDR(GPIOC_ODR_Addr,n)  //输出 
     66          #define PCin(n)    BIT_ADDR(GPIOC_IDR_Addr,n)  //输入 
     67          
     68          #define PDout(n)   BIT_ADDR(GPIOD_ODR_Addr,n)  //输出 
     69          #define PDin(n)    BIT_ADDR(GPIOD_IDR_Addr,n)  //输入 
     70          
     71          #define PEout(n)   BIT_ADDR(GPIOE_ODR_Addr,n)  //输出 
     72          #define PEin(n)    BIT_ADDR(GPIOE_IDR_Addr,n)  //输入
     73          
     74          
     75          
     76          //#define GPIOE_ODR_Addr    (PTE_BASE+0) //0x4001180C 
     77          #define PEin(n)    BIT_ADDR(GPIOE_IDR_Addr,n)  //输入 
     78          #define KEY0_PIN  5    
     79          #define KEY0      PEin(KEY0_PIN) //PE0 
     80          
     81          
     82          
     83          

   \                                 In section .bss, align 4
     84          int ucTimeDelayFlag;
   \                     ucTimeDelayFlag:
   \   00000000                      DS8 4

   \                                 In section .bss, align 1
     85          unsigned char gpline=0 , gpflag=0 , gppoint=0 ;
   \                     gpline:
   \   00000000                      DS8 1

   \                                 In section .bss, align 1
   \                     gpflag:
   \   00000000                      DS8 1

   \                                 In section .bss, align 1
   \                     gppoint:
   \   00000000                      DS8 1
     86          

   \                                 In section .bss, align 4
     87          unsigned char Pic[lie][LineEnd];
   \                     Pic:
   \   00000000                      DS8 6000

   \                                 In section .bss, align 4
     88          unsigned int CLie=0;
   \                     CLie:
   \   00000000                      DS8 4

   \                                 In section .bss, align 4
     89          unsigned int LieCount=0,RowCount;
   \                     LieCount:
   \   00000000                      DS8 4

   \                                 In section .bss, align 4
   \                     RowCount:
   \   00000000                      DS8 4

   \                                 In section .bss, align 4
     90          unsigned int GPflag;
   \                     GPflag:
   \   00000000                      DS8 4

   \                                 In section .bss, align 4
     91          int temp;
   \                     temp:
   \   00000000                      DS8 4
     92          
     93          

   \                                 In section .text, align 4, keep-with-next
     94          const unsigned int GetPic[61]={20,24,28,32,36,40,44,48,52,56,
   \                     GetPic:
   \   00000000                      ; Initializer data, 244 bytes
   \   00000000   140000001800       DC32 20, 24, 28, 32, 36, 40, 44, 48, 52, 56
   \              00001C000000
   \              200000002400
   \              000028000000
   \              2C0000003000
   \              000034000000
   \              38000000    
   \   00000028   3B0000003E00       DC32 59, 62, 65, 68, 71, 74, 77, 80, 83, 86
   \              000041000000
   \              440000004700
   \              00004A000000
   \              4D0000005000
   \              000053000000
   \              56000000    
   \   00000050   590000005B00       DC32 89, 91, 93, 95, 97, 99, 101, 103, 105, 107
   \              00005D000000
   \              5F0000006100
   \              000063000000
   \              650000006700
   \              000069000000
   \              6B000000    
   \   00000078   6D0000006E00       DC32 109, 110, 111, 112, 113, 114, 115, 116, 117, 118
   \              00006F000000
   \              700000007100
   \              000072000000
   \              730000007400
   \              000075000000
   \              76000000    
   \   000000A0   770000007800       DC32 119, 120, 121, 122, 123, 124, 125, 126, 127, 128
   \              000079000000
   \              7A0000007B00
   \              00007C000000
   \              7D0000007E00
   \              00007F000000
   \              80000000    
   \   000000C8   810000008200       DC32 129, 130, 131, 132, 133, 134, 135, 136, 137, 138
   \              000083000000
   \              840000008500
   \              000086000000
   \              870000008800
   \              000089000000
   \              8A000000    
   \   000000F0   8B000000           DC32 139
     95                                        59,62,65,68,71,74,77,80,83,86,
     96                                        89,91,93,95,97,99,101,103,105,107,
     97                                        109,110,111,112,113,114,115,116,117,118,
     98                                        119,120,121,122,123,124,125,126,127,128,
     99                                        129,130,131,132,133,134,135,136,137,138,
    100                                        139
    101                                   };
    102          //FAT32文件系统变量

   \                                 In section .bss, align 4
    103          struct FAT32_Init_Arg *pArg;
   \                     pArg:
   \   00000000                      DS8 4

   \                                 In section .bss, align 4
    104          struct FAT32_Init_Arg FatArg;
   \                     FatArg:
   \   00000000                      DS8 32

   \                                 In section .bss, align 4
    105          struct FileInfoStruct FileInfo;
   \                     FileInfo:
   \   00000000                      DS8 64

   \                                 In section .bss, align 1
    106          uint8 Dev_No=0;
   \                     Dev_No:
   \   00000000                      DS8 1
    107          //BMP变量

   \                                 In section .bss, align 4
    108          RGBQUAD ColorTable[256];
   \                     ColorTable:
   \   00000000                      DS8 1024
    109          //BMP测试数据

   \                                 In section .data, align 4
    110          uint8 pic[]={185,185,185,187,187,187,189,190,189,189,191,190,191,190,148,143,143,148,144,150,197,197,197,201,201,201,201,201,201,201,201,201,201,201,201,201,201,203,201,201,201,203,201,201,203,201,201,203,203,201,201,201,201,201,201,201,200,201,201,197,197,197,197,197,197,197,191,190,190,190,190,190,189,133,133,99,99,99,99,99,185,185,187,187,187,187,190,190,189,190,196,191,191,197,187,144,148,148,143,144,171,197,197,201,201,201,201,201,201,201,203,201,201,203,203,201,201,203,203,201,203,203,201,203,203,203,201,203,203,201,203,203,201,201,201,201,201,201,201,197,197,201,197,197,197,197,191,191,191,190,189,190,189,133,133,99,100,99,99,99,185,187,187,187,187,189,190,190,190,191,191,191,196,197,196,185,149,144,143,149,149,185,197,201,201,201,201,201,201,201,203,201,201,203,203,201,203,203,203,203,203,203,201,203,203,201,203,203,203,201,203,201,201,201,201,201,201,201,201,197,201,197,197,197,197,197,196,196,191,190,190,190,189,133,133,99,100,99,99,99,185,187,187,187,187,189,190,190,190,191,196,191,197,197,197,197,175,147,143,149,149,144,187,201,201,201,201,201,201,201,203,201,203,203,203,201,203,203,203,203,203,203,201,203,203,203,203,203,201,203,203,201,201,203,201,201,201,201,201,201,201,200,197,197,197,197,196,197,191,190,191,190,189,133,133,99,97,99,99,99,185,187,187,187,187,190,190,190,191,196,191,196,197,197,197,197,197,169,148,149,149,144,149,185,201,201,201,201,201,203,203,201,203,203,203,203,203,201,201,203,203,203,203,203,203,201,203,203,203,203,203,201,201,203,201,201,201,201,201,201,201,197,197,201,197,197,197,197,191,190,191,190,189,133,133,99,98,99,99,99,185,187,187,187,189,190,190,190,196,196,191,197,197,197,197,197,197,197,174,149,144,148,149,149,174,201,201,201,201,203,203,201,203,203,201,203,203,203,203,203,203,201,203,203,203,203,203,203,201,203,203,201,203,203,201,201,201,201,201,201,201,200,197,201,197,197,197,196,191,191,191,190,189,133,133,99,99,99,99,99,185,187,187,187,190,190,190,190,196,196,196,197,197,197,197,201,197,197,201,181,148,149,149,148,148,173,201,201,203,203,201,201,203,203,201,203,203,203,203,203,203,203,203,203,203,203,203,203,203,203,203,203,203,201,201,201,201,201,201,201,201,197,201,201,197,197,197,197,191,196,191,190,190,133,133,97,99,99,99,99,185,187,187,187,190,190,190,191,197,196,196,197,197,197,197,201,197,200,201,201,187,149,149,148,149,149,168,201,203,203,201,203,203,203,203,203,203,201,203,203,203,203,203,203,201,203,203,203,203,203,203,203,203,201,201,203,201,201,201,201,201,197,201,197,197,197,197,197,196,197,191,190,190,133,133,98,99,99,99,99,187,187,187,189,190,190,190,196,196,196,197,197,197,197,197,201,200,201,201,201,201,196,149,148,149,149,149,155,201,203,201,203,203,201,203,203,203,203,203,203,201,203,203,203,203,203,203,203,203,203,203,203,203,203,201,203,201,201,201,201,201,200,201,197,201,200,197,197,197,197,191,190,190,133,133,99,99,99,99,99,187,187,189,190,190,190,190,196,196,196,197,197,197,197,201,201,200,201,201,201,201,201,197,149,149,149,149,153,153,201,201,203,203,201,203,203,203,203,203,203,203,203,203,201,203,203,203,203,203,203,201,203,203,201,203,203,201,201,201,201,201,201,201,200,197,200,197,197,197,197,191,191,191,133,133,98,99,99,99,99,187,189,187,190,190,190,191,197,196,196,197,197,197,201,201,197,201,201,201,201,201,201,201,201,153,149,148,149,149,149,201,201,201,201,203,203,203,203,203,203,203,203,203,201,203,203,203,203,203,203,203,203,203,203,203,203,201,201,203,201,201,201,201,197,201,197,197,197,197,196,191,196,190,133,133,99,99,99,99,99,187,187,189,190,190,190,196,196,196,197,197,197,197,201,201,201,201,201,201,201,201,201,201,201,201,159,149,149,149,148,150,201,201,203,203,201,203,203,203,201,203,203,203,203,203,203,201,203,203,203,203,203,203,203,203,203,201,201,201,201,201,201,201,197,201,197,197,197,197,197,191,196,190,133,133,98,99,99,99,99,187,187,190,190,190,190,196,196,196,197,197,197,197,201,201,201,201,201,201,201,203,201,201,203,203,201,174,149,148,149,149,149,197,203,203,201,203,203,203,201,203,203,203,203,203,201,203,203,203,201,203,203,201,203,203,203,201,203,201,201,201,201,201,201,201,197,197,197,197,197,196,196,190,133,133,97,99,99,99,99,187,187,190,190,190,191,196,196,197,197,197,197,201,201,201,201,201,201,201,203,203,201,203,203,201,201,201,187,149,149,149,148,149,197,201,201,203,203,201,203,203,203,203,203,203,201,203,203,203,203,203,203,203,203,203,201,201,203,201,201,201,201,201,201,201,197,197,197,197,197,197,196,190,133,133,99,98,99,99,99,187,189,190,190,190,196,196,191,197,197,197,197,201,201,201,201,201,201,201,203,201,201,203,201,201,201,203,201,197,149,149,149,149,149,185,201,203,203,201,203,203,201,203,203,203,201,203,203,203,203,203,203,201,203,203,201,203,203,201,201,201,201,201,201,201,197,197,197,197,196,197,196,190,133,133,97,99,99,99,99,187,189,190,190,190,196,196,196,197,197,197,197,201,200,201,201,201,201,201,203,201,201,203,203,201,203,201,201,201,201,149,149,150,149,149,149,197,201,201,203,203,203,203,203,201,203,203,203,201,203,203,201,203,203,203,201,203,203,201,201,201,201,201,201,201,197,197,197,197,197,197,191,190,133,133,98,99,99,99,99,187,190,190,190,191,197,196,197,197,197,197,201,201,200,201,201,201,201,203,203,201,203,203,201,201,203,203,201,203,203,201,165,150,149,149,149,149,157,201,203,201,201,203,203,203,203,203,201,201,203,203,201,203,203,201,201,203,201,201,203,201,201,201,201,200,197,201,197,197,197,197,191,191,133,133,97,99,99,99,99,187,190,190,190,196,191,196,197,197,197,197,201,201,201,201,201,201,201,203,201,201,203,203,201,201,203,201,201,203,203,201,203,197,149,149,149,149,149,150,175,201,201,203,203,203,203,203,201,203,203,201,201,203,203,201,203,203,201,201,203,201,201,201,201,197,200,201,197,197,197,197,191,197,133,133,97,99,99,99,99,187,190,190,190,196,196,196,197,197,197,197,201,201,197,201,201,201,203,203,201,201,203,203,201,203,203,201,203,203,203,201,203,203,201,173,149,149,149,149,149,149,185,201,201,203,203,203,201,203,203,201,203,203,201,201,203,201,201,201,203,201,201,201,201,200,201,200,197,197,197,197,191,196,133,133,98,99,99,99,99,189,190,190,191,196,191,196,197,197,197,201,201,201,201,201,201,201,203,201,201,201,203,201,201,203,203,201,203,203,201,201,203,203,201,203,201,157,149,149,149,149,149,149,181,201,203,201,201,203,203,203,203,201,201,203,203,201,201,203,201,201,201,201,201,201,201,197,197,197,197,197,196,196,133,133,99,99,99,99,99,187,190,190,191,191,191,197,197,197,197,200,201,201,201,201,201,201,201,201,201,203,203,201,203,203,201,201,203,203,201,203,203,203,201,203,203,201,201,157,149,149,149,149,149,153,165,201,203,203,201,201,203,203,201,203,203,201,201,203,201,201,201,201,201,201,201,197,197,197,197,196,197,196,133,133,98,99,99,99,99,189,189,190,191,191,196,197,197,197,197,201,200,197,201,201,201,201,203,201,201,203,203,201,203,203,201,203,203,203,201,203,203,201,203,203,203,201,203,201,201,165,149,149,149,149,149,149,153,190,201,201,203,201,201,203,201,201,201,201,201,201,201,201,201,201,201,197,197,197,197,191,197,196,133,133,98,99,99,99,99,189,189,190,191,196,196,197,197,197,197,201,197,201,201,201,201,201,201,201,201,203,203,201,203,203,201,203,203,201,203,203,203,201,203,203,203,203,203,203,201,203,201,185,149,149,149,149,149,149,149,153,171,197,201,203,201,201,201,201,201,201,201,201,201,201,201,197,197,197,197,197,197,191,133,133,97,99,99,99,99,187,189,191,191,191,196,197,197,197,201,197,197,201,201,201,201,203,201,201,203,201,201,203,203,203,201,203,203,201,203,203,203,203,203,203,201,203,203,201,201,203,201,201,203,201,164,149,149,149,149,150,149,149,150,150,171,197,201,201,201,201,201,201,201,201,200,197,197,197,197,197,197,190,133,133,97,99,99,99,99,187,189,190,190,190,197,197,197,197,201,200,197,201,201,201,201,201,201,201,203,201,201,203,203,201,203,203,201,201,203,203,203,203,203,203,201,203,203,201,203,203,201,201,203,203,201,203,201,185,153,153,149,149,149,149,149,149,151,149,175,201,201,201,201,201,197,197,200,197,197,197,197,190,133,133,96,99,99,99,99,187,190,190,190,191,197,197,197,197,197,197,201,201,201,201,201,201,201,201,203,201,201,203,203,203,203,203,201,201,203,203,201,203,203,203,203,203,203,201,203,203,201,203,203,201,203,203,201,201,203,201,200,187,155,149,149,149,149,149,149,150,149,153,187,197,197,200,197,197,197,197,196,191,133,133,99,99,99,99,99,149,187,190,190,191,197,197,196,200,197,197,201,201,201,201,201,201,201,203,201,201,201,203,201,201,203,201,201,203,203,201,201,203,203,203,203,203,201,203,203,201,201,203,203,201,203,203,201,201,203,201,201,203,201,201,201,197,171,149,153,149,149,149,149,149,149,150,158,187,197,197,191,190,133,133,100,99,99,99,99,149,153,174,190,196,196,191,197,197,197,197,201,201,201,201,201,201,201,201,201,201,203,203,201,203,203,203,201,203,203,201,203,203,203,201,203,203,201,203,203,201,201,203,201,201,203,201,201,201,203,201,201,203,201,201,201,201,201,201,201,197,189,158,149,149,150,149,149,148,149,149,149,149,133,133,101,99,99,99,99,149,149,150,150,191,196,196,197,197,197,197,201,201,201,201,201,201,201,203,201,201,201,201,201,203,203,201,201,203,203,201,203,203,201,203,203,201,201,203,203,201,203,203,201,201,203,201,201,203,201,201,201,201,201,201,201,201,201,201,201,201,201,201,201,197,197,191,174,150,149,149,148,149,133,133,101,99,99,99,99,149,149,149,153,153,182,191,197,197,197,197,201,197,201,201,201,201,201,201,201,201,203,201,201,203,201,201,201,203,201,203,203,203,203,203,203,201,201,203,203,201,203,203,201,203,203,201,203,203,201,201,203,201,201,201,201,201,201,201,201,201,201,201,201,200,201,197,197,197,197,191,191,196,133,133,97,99,99,99,99,153,149,149,153,153,150,155,197,197,197,201,201,197,201,201,201,201,201,201,201,203,201,201,201,203,201,201,203,203,203,203,203,203,201,203,203,201,203,203,201,203,203,203,201,203,201,201,201,203,201,201,203,201,201,203,201,201,201,201,201,201,201,201,197,201,201,197,197,197,197,196,196,191,133,133,99,99,99,99,99,153,149,149,149,149,153,153,153,185,197,201,197,197,201,201,201,201,201,201,201,201,201,201,203,203,201,203,203,201,201,203,201,201,203,203,201,201,203,201,201,203,203,201,201,203,201,201,203,201,201,201,203,201,201,201,201,201,201,201,201,201,201,201,200,201,201,197,197,197,196,196,196,191,133,133,99,100,99,99,99,155,155,155,149,149,149,153,151,153,155,190,197,201,201,201,201,201,201,201,201,203,201,201,203,201,201,203,201,201,201,203,201,201,203,203,201,203,203,201,201,203,201,201,203,203,201,201,203,201,201,201,201,201,201,203,201,201,201,201,201,201,201,200,197,201,197,197,197,197,196,196,196,191,133,133,99,100,99,99,99,155,155,155,153,149,153,153,149,153,153,153,153,189,201,201,201,201,201,201,201,201,201,201,203,201,201,203,201,201,203,203,201,201,203,203,201,203,203,201,203,203,201,201,203,201,201,203,203,201,201,201,201,201,201,201,201,201,201,201,201,201,201,201,201,201,197,197,197,197,196,197,196,190,133,133,99,98,99,99,99,158,158,157,157,153,155,153,149,153,155,153,153,155,153,187,201,201,200,201,201,201,201,201,201,201,201,203,201,201,203,203,201,203,203,201,201,203,203,201,203,203,201,201,203,201,201,203,201,201,201,201,201,201,201,201,201,201,201,201,201,201,201,197,201,201,197,197,197,197,196,197,191,190,133,133,99,98,99,99,99,159,165,164,159,157,155,155,153,153,149,149,155,155,153,153,155,175,197,201,201,201,201,201,201,201,201,201,201,201,203,201,201,203,203,201,203,203,201,201,203,201,201,203,201,201,201,201,201,201,203,201,201,201,201,201,201,201,201,201,201,201,201,200,201,197,197,197,197,196,197,197,191,190,133,133,99,99,99,99,99,159,165,165,165,164,159,155,153,153,153,153,153,155,153,153,155,153,153,174,201,201,201,201,201,201,201,201,201,201,201,201,201,203,201,201,203,201,201,201,203,201,201,201,201,201,201,201,201,201,201,201,201,201,201,201,201,201,201,197,201,201,201,201,201,197,197,197,197,197,197,196,190,190,133,133,97,99,99,99,99,164,165,165,165,165,159,158,157,158,153,153,153,153,149,155,153,153,153,155,155,155,190,201,201,201,201,201,201,201,201,201,203,203,201,201,203,201,201,203,201,201,201,203,201,201,203,201,201,201,201,201,201,201,201,201,201,201,201,201,201,201,197,201,200,197,197,197,197,196,197,191,190,191,133,133,98,99,99,99,99,161,165,165,165,169,159,164,165,157,155,155,153,153,153,153,155,153,153,153,153,153,155,155,155,189,201,201,201,201,201,201,201,201,201,201,201,201,201,201,201,201,201,201,201,201,201,201,201,201,201,201,201,201,201,201,201,201,201,201,201,197,201,201,197,197,197,197,197,197,197,196,190,191,133,133,99,99,99,99,99,165,168,161,165,169,165,159,165,159,158,158,155,153,153,153,153,149,155,153,153,153,155,153,153,155,155,157,165,200,201,201,201,201,201,201,201,201,201,201,201,201,201,201,201,201,201,201,201,201,201,201,201,201,201,201,201,201,197,201,201,197,201,201,197,197,197,197,197,197,196,191,190,187,133,133,99,99,99,99,99,159,164,159,165,165,165,165,159,164,165,164,158,155,155,155,153,153,153,153,153,155,153,153,153,155,153,153,155,155,155,157,169,197,201,201,201,201,201,201,201,201,201,201,201,201,201,201,201,201,201,201,201,201,201,201,201,197,201,201,201,197,201,197,197,197,197,197,196,197,190,181,181,181,133,133,98,99,99,99,99,165,165,166,165,165,165,171,169,165,169,165,164,158,158,157,153,155,153,153,153,155,153,151,155,153,153,153,155,153,153,155,155,153,155,157,158,185,201,201,201,201,201,201,201,201,201,200,201,201,201,201,201,201,197,201,201,200,200,201,197,200,197,197,197,197,189,185,181,182,181,175,181,176,133,133,99,99,99,99,99,159,158,169,169,165,173,169,165,165,169,169,165,165,165,158,156,157,153,153,153,153,153,153,153,153,153,155,153,153,155,155,155,153,155,155,155,153,155,153,153,155,158,165,191,187,196,200,201,201,197,201,201,197,197,197,197,196,190,189,187,187,187,185,185,185,182,181,182,181,181,175,181,175,133,133,97,99,99,99,99,157,158,165,164,165,165,165,165,164,169,165,169,169,169,165,169,171,169,169,171,165,169,169,169,169,169,171,171,169,169,169,165,169,171,169,165,169,165,165,165,165,165,165,165,165,165,165,165,165,165,165,165,165,169,169,171,175,175,171,169,174,174,169,165,169,165,155,149,149,165,142,147,143,133,133,99,99,100,99,100,165,158,165,158,158,165,168,159,165,169,164,165,171,165,165,171,169,165,169,169,169,161,171,169,169,169,169,169,169,165,169,165,169,169,165,165,169,171,159,164,164,159,165,159,158,158,159,158,158,159,161,159,169,174,171,173,174,174,169,165,165,161,165,165,153,143,143,155,143,144,144,148,143,133,133,99,99,99,100,99,155,159,158,164,159,159,165,161,165,165,165,165,169,165,165,169,168,165,169,169,169,169,171,169,169,169,169,169,169,171,169,165,165,171,169,169,169,169,158,159,158,158,159,158,155,155,157,155,155,158,169,169,169,165,165,158,155,155,155,158,157,149,149,155,155,148,142,149,144,148,142,139,142,133,133,99,99,100,100,99,155,159,159,164,165,165,165,161,165,165,165,171,165,165,165,169,164,165,171,169,169,173,169,169,165,171,169,169,169,171,169,169,169,169,168,171,165,166,155,158,157,157,158,155,153,155,153,153,155,155,155,149,153,153,149,149,149,149,142,147,149,149,153,155,155,149,142,149,143,149,142,139,143,133,133,99,100,99,99,99,155,164,158,158,165,165,158,165,164,164,159,165,165,165,169,165,165,169,169,169,169,169,168,169,168,169,169,169,171,169,171,169,171,165,169,169,169,169,164,164,159,159,164,158,157,158,157,155,155,153,149,143,148,143,142,142,142,139,141,143,149,151,155,155,155,153,142,149,142,148,143,142,144,133,133,99,99,100,100,100,158,158,158,159,165,159,161,156,161,164,165,164,165,165,169,165,165,169,169,165,165,169,165,165,171,169,169,165,169,169,169,171,169,165,169,171,169,171,155,153,153,153,153,148,143,147,142,142,142,142,139,141,141,139,139,142,142,142,142,149,149,153,155,155,155,155,141,149,143,148,143,139,149,133,133,99,100,100,99,99,156,158,155,157,164,158,158,165,157,159,169,164,159,165,169,165,165,169,168,165,169,169,169,165,169,171,169,165,169,169,169,169,169,169,169,169,169,169,144,139,139,141,141,139,141,141,139,139,142,141,141,141,141,141,142,143,142,142,142,144,149,153,155,153,155,155,141,150,143,142,149,155,158,133,133,99,99,100,99,100,158,157,157,159,159,158,159,158,158,165,165,165,165,169,168,165,165,169,165,169,165,171,169,165,169,165,165,171,169,165,169,169,169,169,169,169,165,165,149,143,148,149,149,149,142,142,139,141,149,141,141,141,141,141,143,142,142,143,142,143,149,153,153,153,155,155,141,153,149,158,157,153,157,133,133,99,100,100,100,99,133,133,133,133,133,133,133,133,133,133,133,133,133,133,133,133,133,133,133,133,133,133,133,133,133,133,133,133,133,133,99,99,99,133,133,133,133,133,133,133,133,133,133,133,133,133,133,133,133,133,133,133,133,133,133,133,133,133,133,133,133,133,133,133,133,133,133,133,133,133,133,133,133,133,133,99,99,99,99,133,97,97,98,133,133,133,133,133,133,101,99,99,99,133,133,133,133,133,133,133,133,133,133,133,133,133,133,133,133,133,133,133,133,133,133,133,133,133,133,133,133,133,133,133,133,133,133,133,133,133,133,133,133,133,121,99,99,99,133,133,133,133,133,133,133,133,133,133,133,133,133,133,133,133,133,133,133,133,133,133,133,133,133,133,133,133,133,133,133,133,133,133,133,133,133,133,133,133,133,133,133,133,133,133,133,133,133,133,133,133,133,133,133,133,133,133,133,133,133,133,133,133,133,133,133,133,133,133,133,133,133,133,133,133,133,133,133,133,133,133,133,133,133,133,133,133,133,133,133,133,133,133,133,133,133,97,100,100,99,99,133,133,133,133,133,133,133,133,133,133,133,133,133,133,133,133,133,133,133,133,133,133,133,133,133,133,133,133,133,133,133,133,133,133,133,133,133,133,133,133,133,133,133,133,133,133,133,133,133,133,133,133,133,133,133,133,133,133,133,133,133,133,133,133,133,133,133,133,133,133,133,133,133,133,133,97,99,99,100,100,133,133,133,133,133,133,133,133,133,133,133,133,133,133,133,133,133,133,133,133,133,133,133,133,133,133,133,134,133,133,133,133,133,133,133,133,133,133,133,133,133,133,133,133,133,133,133,133,133,133,133,133,133,133,133,133,133,133,133,133,133,133,133,133,133,133,133,133,133,133,133,133,133,133,133,99,99,100,100,99,133,133,133,133,133,133,133,133,133,133,133,133,133,133,133,133,133,133,133,133,133,133,133,133,133,133,133,133,133,133,133,133,133,133,133,133,133,133,133,133,133,133,133,133,133,133,133,133,133,133,133,133,133,133,133,133,133,133,133,133,133,133,133,133,133,133,133,133,133,133,133,133,133,133,134,101,100,99,99,99,181,185,185,185,187,187,187,187,190,190,189,190,190,144,144,147,142,143,149,196,197,197,197,197,197,201,201,200,201,201,201,201,201,201,201,201,201,201,201,203,201,201,203,201,201,203,201,201,201,203,201,201,201,201,201,201,201,197,197,197,197,197,197,197,196,191,196,190,190,190,190,187,187,133,133,101,99,100,100,100,185,187,187,185,187,187,187,189,190,189,190,191,191,187,149,144,143,144,149,158,197,200,200,197,201,201,201,201,201,201,201,201,201,201,201,203,201,201,203,203,201,203,203,201,201,203,201,201,203,201,201,201,201,201,201,201,201,197,197,200,197,197,197,197,196,197,196,190,190,191,190,187,189,133,133,101,100,100,99,99,185,187,187,187,189,187,187,190,190,190,191,196,191,196,187,144,143,149,148,144,176,200,200,197,201,201,201,201,201,201,201,203,203,201,203,203,201,203,203,203,203,203,203,201,203,203,203,201,203,203,201,203,201,201,201,201,201,201,201,201,197,197,197,197,196,197,196,191,191,191,190,190,190,133,133,99,99,99,99,100};
   \                     pic:
   \   00000000   B9B9B9BBBBBB       DC8 185, 185, 185, 187, 187, 187, 189, 190, 189, 189, 191, 190, 191
   \              BDBEBDBDBFBE
   \              BF          
   \   0000000D   BE948F8F9490       DC8 190, 148, 143, 143, 148, 144, 150, 197, 197, 197, 201, 201, 201
   \              96C5C5C5C9C9
   \              C9          
   \   0000001A   C9C9C9C9C9C9       DC8 201, 201, 201, 201, 201, 201, 201, 201, 201, 201, 201, 203, 201
   \              C9C9C9C9C9CB
   \              C9          
   \   00000027   C9C9CBC9C9CB       DC8 201, 201, 203, 201, 201, 203, 201, 201, 203, 203, 201, 201, 201
   \              C9C9CBCBC9C9
   \              C9          
   \   00000034   C9C9C9C9C8C9       DC8 201, 201, 201, 201, 200, 201, 201, 197, 197, 197, 197, 197, 197
   \              C9C5C5C5C5C5
   \              C5          
   \   00000041   C5BFBEBEBEBE       DC8 197, 191, 190, 190, 190, 190, 190, 189, 133, 133, 99, 99, 99, 99
   \              BEBD85856363
   \              6363        
   \   0000004F   63B9B9BBBBBB       DC8 99, 185, 185, 187, 187, 187, 187, 190, 190, 189, 190, 196, 191, 191
   \              BBBEBEBDBEC4
   \              BFBF        
   \   0000005D   C5BB9094948F       DC8 197, 187, 144, 148, 148, 143, 144, 171, 197, 197, 201, 201, 201
   \              90ABC5C5C9C9
   \              C9          
   \   0000006A   C9C9C9C9CBC9       DC8 201, 201, 201, 201, 203, 201, 201, 203, 203, 201, 201, 203, 203
   \              C9CBCBC9C9CB
   \              CB          
   \   00000077   C9CBCBC9CBCB       DC8 201, 203, 203, 201, 203, 203, 203, 201, 203, 203, 201, 203, 203
   \              CBC9CBCBC9CB
   \              CB          
   \   00000084   C9C9C9C9C9C9       DC8 201, 201, 201, 201, 201, 201, 201, 197, 197, 201, 197, 197, 197
   \              C9C5C5C9C5C5
   \              C5          
   \   00000091   C5BFBFBFBEBD       DC8 197, 191, 191, 191, 190, 189, 190, 189, 133, 133, 99, 100, 99, 99
   \              BEBD85856364
   \              6363        
   \   0000009F   63B9BBBBBBBB       DC8 99, 185, 187, 187, 187, 187, 189, 190, 190, 190, 191, 191, 191, 196
   \              BDBEBEBEBFBF
   \              BFC4        
   \   000000AD   C5C4B995908F       DC8 197, 196, 185, 149, 144, 143, 149, 149, 185, 197, 201, 201, 201
   \              9595B9C5C9C9
   \              C9          
   \   000000BA   C9C9C9C9CBC9       DC8 201, 201, 201, 201, 203, 201, 201, 203, 203, 201, 203, 203, 203
   \              C9CBCBC9CBCB
   \              CB          
   \   000000C7   CBCBCBC9CBCB       DC8 203, 203, 203, 201, 203, 203, 201, 203, 203, 203, 201, 203, 201
   \              C9CBCBCBC9CB
   \              C9          
   \   000000D4   C9C9C9C9C9C9       DC8 201, 201, 201, 201, 201, 201, 201, 197, 201, 197, 197, 197, 197
   \              C9C5C9C5C5C5
   \              C5          
   \   000000E1   C5C4C4BFBEBE       DC8 197, 196, 196, 191, 190, 190, 190, 189, 133, 133, 99, 100, 99, 99
   \              BEBD85856364
   \              6363        
   \   000000EF   63B9BBBBBBBB       DC8 99, 185, 187, 187, 187, 187, 189, 190, 190, 190, 191, 196, 191, 197
   \              BDBEBEBEBFC4
   \              BFC5        
   \   000000FD   C5C5C5AF938F       DC8 197, 197, 197, 175, 147, 143, 149, 149, 144, 187, 201, 201, 201
   \              959590BBC9C9
   \              C9          
   \   0000010A   C9C9C9C9CBC9       DC8 201, 201, 201, 201, 203, 201, 203, 203, 203, 201, 203, 203, 203
   \              CBCBCBC9CBCB
   \              CB          
   \   00000117   CBCBCBC9CBCB       DC8 203, 203, 203, 201, 203, 203, 203, 203, 203, 201, 203, 203, 201
   \              CBCBCBC9CBCB
   \              C9          
   \   00000124   C9CBC9C9C9C9       DC8 201, 203, 201, 201, 201, 201, 201, 201, 201, 200, 197, 197, 197
   \              C9C9C9C8C5C5
   \              C5          
   \   00000131   C5C4C5BFBEBF       DC8 197, 196, 197, 191, 190, 191, 190, 189, 133, 133, 99, 97, 99, 99
   \              BEBD85856361
   \              6363        
   \   0000013F   63B9BBBBBBBB       DC8 99, 185, 187, 187, 187, 187, 190, 190, 190, 191, 196, 191, 196, 197
   \              BEBEBEBFC4BF
   \              C4C5        
   \   0000014D   C5C5C5C5A994       DC8 197, 197, 197, 197, 169, 148, 149, 149, 144, 149, 185, 201, 201
   \              95959095B9C9
   \              C9          
   \   0000015A   C9C9C9CBCBC9       DC8 201, 201, 201, 203, 203, 201, 203, 203, 203, 203, 203, 201, 201
   \              CBCBCBCBCBC9
   \              C9          
   \   00000167   CBCBCBCBCBCB       DC8 203, 203, 203, 203, 203, 203, 201, 203, 203, 203, 203, 203, 201
   \              C9CBCBCBCBCB
   \              C9          
   \   00000174   C9CBC9C9C9C9       DC8 201, 203, 201, 201, 201, 201, 201, 201, 201, 197, 197, 201, 197
   \              C9C9C9C5C5C9
   \              C5          
   \   00000181   C5C5C5BFBEBF       DC8 197, 197, 197, 191, 190, 191, 190, 189, 133, 133, 99, 98, 99, 99
   \              BEBD85856362
   \              6363        
   \   0000018F   63B9BBBBBBBD       DC8 99, 185, 187, 187, 187, 189, 190, 190, 190, 196, 196, 191, 197, 197
   \              BEBEBEC4C4BF
   \              C5C5        
   \   0000019D   C5C5C5C5C5AE       DC8 197, 197, 197, 197, 197, 174, 149, 144, 148, 149, 149, 174, 201
   \              9590949595AE
   \              C9          
   \   000001AA   C9C9C9CBCBC9       DC8 201, 201, 201, 203, 203, 201, 203, 203, 201, 203, 203, 203, 203
   \              CBCBC9CBCBCB
   \              CB          
   \   000001B7   CBCBC9CBCBCB       DC8 203, 203, 201, 203, 203, 203, 203, 203, 203, 201, 203, 203, 201
   \              CBCBCBC9CBCB
   \              C9          
   \   000001C4   CBCBC9C9C9C9       DC8 203, 203, 201, 201, 201, 201, 201, 201, 201, 200, 197, 201, 197
   \              C9C9C9C8C5C9
   \              C5          
   \   000001D1   C5C5C4BFBFBF       DC8 197, 197, 196, 191, 191, 191, 190, 189, 133, 133, 99, 99, 99, 99
   \              BEBD85856363
   \              6363        
   \   000001DF   63B9BBBBBBBE       DC8 99, 185, 187, 187, 187, 190, 190, 190, 190, 196, 196, 196, 197, 197
   \              BEBEBEC4C4C4
   \              C5C5        
   \   000001ED   C5C5C9C5C5C9       DC8 197, 197, 201, 197, 197, 201, 181, 148, 149, 149, 148, 148, 173
   \              B59495959494
   \              AD          
   \   000001FA   C9C9CBCBC9C9       DC8 201, 201, 203, 203, 201, 201, 203, 203, 201, 203, 203, 203, 203
   \              CBCBC9CBCBCB
   \              CB          
   \   00000207   CBCBCBCBCBCB       DC8 203, 203, 203, 203, 203, 203, 203, 203, 203, 203, 203, 203, 203
   \              CBCBCBCBCBCB
   \              CB          
   \   00000214   CBC9C9C9C9C9       DC8 203, 201, 201, 201, 201, 201, 201, 201, 201, 197, 201, 201, 197
   \              C9C9C9C5C9C9
   \              C5          
   \   00000221   C5C5C5BFC4BF       DC8 197, 197, 197, 191, 196, 191, 190, 190, 133, 133, 97, 99, 99, 99
   \              BEBE85856163
   \              6363        
   \   0000022F   63B9BBBBBBBE       DC8 99, 185, 187, 187, 187, 190, 190, 190, 191, 197, 196, 196, 197, 197
   \              BEBEBFC5C4C4
   \              C5C5        
   \   0000023D   C5C5C9C5C8C9       DC8 197, 197, 201, 197, 200, 201, 201, 187, 149, 149, 148, 149, 149
   \              C9BB95959495
   \              95          
   \   0000024A   A8C9CBCBC9CB       DC8 168, 201, 203, 203, 201, 203, 203, 203, 203, 203, 203, 201, 203
   \              CBCBCBCBCBC9
   \              CB          
   \   00000257   CBCBCBCBCBC9       DC8 203, 203, 203, 203, 203, 201, 203, 203, 203, 203, 203, 203, 203
   \              CBCBCBCBCBCB
   \              CB          
   \   00000264   CBC9C9CBC9C9       DC8 203, 201, 201, 203, 201, 201, 201, 201, 201, 197, 201, 197, 197
   \              C9C9C9C5C9C5
   \              C5          
   \   00000271   C5C5C5C4C5BF       DC8 197, 197, 197, 196, 197, 191, 190, 190, 133, 133, 98, 99, 99, 99
   \              BEBE85856263
   \              6363        
   \   0000027F   63BBBBBBBDBE       DC8 99, 187, 187, 187, 189, 190, 190, 190, 196, 196, 196, 197, 197, 197
   \              BEBEC4C4C4C5
   \              C5C5        
   \   0000028D   C5C5C9C8C9C9       DC8 197, 197, 201, 200, 201, 201, 201, 201, 196, 149, 148, 149, 149
   \              C9C9C4959495
   \              95          
   \   0000029A   959BC9CBC9CB       DC8 149, 155, 201, 203, 201, 203, 203, 201, 203, 203, 203, 203, 203
   \              CBC9CBCBCBCB
   \              CB          
   \   000002A7   CBC9CBCBCBCB       DC8 203, 201, 203, 203, 203, 203, 203, 203, 203, 203, 203, 203, 203
   \              CBCBCBCBCBCB
   \              CB          
   \   000002B4   CBCBC9CBC9C9       DC8 203, 203, 201, 203, 201, 201, 201, 201, 201, 200, 201, 197, 201
   \              C9C9C9C8C9C5
   \              C9          
   \   000002C1   C8C5C5C5C5BF       DC8 200, 197, 197, 197, 197, 191, 190, 190, 133, 133, 99, 99, 99, 99
   \              BEBE85856363
   \              6363        
   \   000002CF   63BBBBBDBEBE       DC8 99, 187, 187, 189, 190, 190, 190, 190, 196, 196, 196, 197, 197, 197
   \              BEBEC4C4C4C5
   \              C5C5        
   \   000002DD   C5C9C9C8C9C9       DC8 197, 201, 201, 200, 201, 201, 201, 201, 201, 197, 149, 149, 149
   \              C9C9C9C59595
   \              95          
   \   000002EA   959999C9C9CB       DC8 149, 153, 153, 201, 201, 203, 203, 201, 203, 203, 203, 203, 203
   \              CBC9CBCBCBCB
   \              CB          
   \   000002F7   CBCBCBCBC9CB       DC8 203, 203, 203, 203, 201, 203, 203, 203, 203, 203, 203, 201, 203
   \              CBCBCBCBCBC9
   \              CB          
   \   00000304   CBC9CBCBC9C9       DC8 203, 201, 203, 203, 201, 201, 201, 201, 201, 201, 201, 200, 197
   \              C9C9C9C9C9C8
   \              C5          
   \   00000311   C8C5C5C5C5BF       DC8 200, 197, 197, 197, 197, 191, 191, 191, 133, 133, 98, 99, 99, 99
   \              BFBF85856263
   \              6363        
   \   0000031F   63BBBDBBBEBE       DC8 99, 187, 189, 187, 190, 190, 190, 191, 197, 196, 196, 197, 197, 197
   \              BEBFC5C4C4C5
   \              C5C5        
   \   0000032D   C9C9C5C9C9C9       DC8 201, 201, 197, 201, 201, 201, 201, 201, 201, 201, 201, 153, 149
   \              C9C9C9C9C999
   \              95          
   \   0000033A   94959595C9C9       DC8 148, 149, 149, 149, 201, 201, 201, 201, 203, 203, 203, 203, 203
   \              C9C9CBCBCBCB
   \              CB          
   \   00000347   CBCBCBCBC9CB       DC8 203, 203, 203, 203, 201, 203, 203, 203, 203, 203, 203, 203, 203
   \              CBCBCBCBCBCB
   \              CB          
   \   00000354   CBCBCBCBC9C9       DC8 203, 203, 203, 203, 201, 201, 203, 201, 201, 201, 201, 197, 201
   \              CBC9C9C9C9C5
   \              C9          
   \   00000361   C5C5C5C5C4BF       DC8 197, 197, 197, 197, 196, 191, 196, 190, 133, 133, 99, 99, 99, 99
   \              C4BE85856363
   \              6363        
   \   0000036F   63BBBBBDBEBE       DC8 99, 187, 187, 189, 190, 190, 190, 196, 196, 196, 197, 197, 197, 197
   \              BEC4C4C4C5C5
   \              C5C5        
   \   0000037D   C9C9C9C9C9C9       DC8 201, 201, 201, 201, 201, 201, 201, 201, 201, 201, 201, 201, 159
   \              C9C9C9C9C9C9
   \              9F          
   \   0000038A   9595959496C9       DC8 149, 149, 149, 148, 150, 201, 201, 203, 203, 201, 203, 203, 203
   \              C9CBCBC9CBCB
   \              CB          
   \   00000397   C9CBCBCBCBCB       DC8 201, 203, 203, 203, 203, 203, 203, 201, 203, 203, 203, 203, 203
   \              CBC9CBCBCBCB
   \              CB          
   \   000003A4   CBCBCBCBC9C9       DC8 203, 203, 203, 203, 201, 201, 201, 201, 201, 201, 201, 197, 201
   \              C9C9C9C9C9C5
   \              C9          
   \   000003B1   C5C5C5C5C5BF       DC8 197, 197, 197, 197, 197, 191, 196, 190, 133, 133, 98, 99, 99, 99
   \              C4BE85856263
   \              6363        
   \   000003BF   63BBBBBEBEBE       DC8 99, 187, 187, 190, 190, 190, 190, 196, 196, 196, 197, 197, 197, 197
   \              BEC4C4C4C5C5
   \              C5C5        
   \   000003CD   C9C9C9C9C9C9       DC8 201, 201, 201, 201, 201, 201, 201, 203, 201, 201, 203, 203, 201
   \              C9CBC9C9CBCB
   \              C9          
   \   000003DA   AE9594959595       DC8 174, 149, 148, 149, 149, 149, 197, 203, 203, 201, 203, 203, 203
   \              C5CBCBC9CBCB
   \              CB          
   \   000003E7   C9CBCBCBCBCB       DC8 201, 203, 203, 203, 203, 203, 201, 203, 203, 203, 201, 203, 203
   \              C9CBCBCBC9CB
   \              CB          
   \   000003F4   C9CBCBCBC9CB       DC8 201, 203, 203, 203, 201, 203, 201, 201, 201, 201, 201, 201, 201
   \              C9C9C9C9C9C9
   \              C9          
   \   00000401   C5C5C5C5C5C4       DC8 197, 197, 197, 197, 197, 196, 196, 190, 133, 133, 97, 99, 99, 99
   \              C4BE85856163
   \              6363        
   \   0000040F   63BBBBBEBEBE       DC8 99, 187, 187, 190, 190, 190, 191, 196, 196, 197, 197, 197, 197, 201
   \              BFC4C4C5C5C5
   \              C5C9        
   \   0000041D   C9C9C9C9C9C9       DC8 201, 201, 201, 201, 201, 201, 203, 203, 201, 203, 203, 201, 201
   \              CBCBC9CBCBC9
   \              C9          
   \   0000042A   C9BB95959594       DC8 201, 187, 149, 149, 149, 148, 149, 197, 201, 201, 203, 203, 201
   \              95C5C9C9CBCB
   \              C9          
   \   00000437   CBCBCBCBCBCB       DC8 203, 203, 203, 203, 203, 203, 201, 203, 203, 203, 203, 203, 203
   \              C9CBCBCBCBCB
   \              CB          
   \   00000444   CBCBCBC9C9CB       DC8 203, 203, 203, 201, 201, 203, 201, 201, 201, 201, 201, 201, 201
   \              C9C9C9C9C9C9
   \              C9          
   \   00000451   C5C5C5C5C5C5       DC8 197, 197, 197, 197, 197, 197, 196, 190, 133, 133, 99, 98, 99, 99
   \              C4BE85856362
   \              6363        
   \   0000045F   63BBBDBEBEBE       DC8 99, 187, 189, 190, 190, 190, 196, 196, 191, 197, 197, 197, 197, 201
   \              C4C4BFC5C5C5
   \              C5C9        
   \   0000046D   C9C9C9C9C9C9       DC8 201, 201, 201, 201, 201, 201, 203, 201, 201, 203, 201, 201, 201
   \              CBC9C9CBC9C9
   \              C9          
   \   0000047A   CBC9C5959595       DC8 203, 201, 197, 149, 149, 149, 149, 149, 185, 201, 203, 203, 201
   \              9595B9C9CBCB
   \              C9          
   \   00000487   CBCBC9CBCBCB       DC8 203, 203, 201, 203, 203, 203, 201, 203, 203, 203, 203, 203, 203
   \              C9CBCBCBCBCB
   \              CB          
   \   00000494   C9CBCBC9CBCB       DC8 201, 203, 203, 201, 203, 203, 201, 201, 201, 201, 201, 201, 201
   \              C9C9C9C9C9C9
   \              C9          
   \   000004A1   C5C5C5C5C4C5       DC8 197, 197, 197, 197, 196, 197, 196, 190, 133, 133, 97, 99, 99, 99
   \              C4BE85856163
   \              6363        
   \   000004AF   63BBBDBEBEBE       DC8 99, 187, 189, 190, 190, 190, 196, 196, 196, 197, 197, 197, 197, 201
   \              C4C4C4C5C5C5
   \              C5C9        
   \   000004BD   C8C9C9C9C9C9       DC8 200, 201, 201, 201, 201, 201, 203, 201, 201, 203, 203, 201, 203
   \              CBC9C9CBCBC9
   \              CB          
   \   000004CA   C9C9C9C99595       DC8 201, 201, 201, 201, 149, 149, 150, 149, 149, 149, 197, 201, 201
   \              96959595C5C9
   \              C9          
   \   000004D7   CBCBCBCBCBC9       DC8 203, 203, 203, 203, 203, 201, 203, 203, 203, 201, 203, 203, 201
   \              CBCBCBC9CBCB
   \              C9          
   \   000004E4   CBCBCBC9CBCB       DC8 203, 203, 203, 201, 203, 203, 201, 201, 201, 201, 201, 201, 201
   \              C9C9C9C9C9C9
   \              C9          
   \   000004F1   C5C5C5C5C5C5       DC8 197, 197, 197, 197, 197, 197, 191, 190, 133, 133, 98, 99, 99, 99
   \              BFBE85856263
   \              6363        
   \   000004FF   63BBBEBEBEBF       DC8 99, 187, 190, 190, 190, 191, 197, 196, 197, 197, 197, 197, 201, 201
   \              C5C4C5C5C5C5
   \              C9C9        
   \   0000050D   C8C9C9C9C9CB       DC8 200, 201, 201, 201, 201, 203, 203, 201, 203, 203, 201, 201, 203
   \              CBC9CBCBC9C9
   \              CB          
   \   0000051A   CBC9CBCBC9A5       DC8 203, 201, 203, 203, 201, 165, 150, 149, 149, 149, 149, 157, 201
   \              96959595959D
   \              C9          
   \   00000527   CBC9C9CBCBCB       DC8 203, 201, 201, 203, 203, 203, 203, 203, 201, 201, 203, 203, 201
   \              CBCBC9C9CBCB
   \              C9          
   \   00000534   CBCBC9C9CBC9       DC8 203, 203, 201, 201, 203, 201, 201, 203, 201, 201, 201, 201, 200
   \              C9CBC9C9C9C9
   \              C8          
   \   00000541   C5C9C5C5C5C5       DC8 197, 201, 197, 197, 197, 197, 191, 191, 133, 133, 97, 99, 99, 99
   \              BFBF85856163
   \              6363        
   \   0000054F   63BBBEBEBEC4       DC8 99, 187, 190, 190, 190, 196, 191, 196, 197, 197, 197, 197, 201, 201
   \              BFC4C5C5C5C5
   \              C9C9        
   \   0000055D   C9C9C9C9C9CB       DC8 201, 201, 201, 201, 201, 203, 201, 201, 203, 203, 201, 201, 203
   \              C9C9CBCBC9C9
   \              CB          
   \   0000056A   C9C9CBCBC9CB       DC8 201, 201, 203, 203, 201, 203, 197, 149, 149, 149, 149, 149, 150
   \              C59595959595
   \              96          
   \   00000577   AFC9C9CBCBCB       DC8 175, 201, 201, 203, 203, 203, 203, 203, 201, 203, 203, 201, 201
   \              CBCBC9CBCBC9
   \              C9          
   \   00000584   CBCBC9CBCBC9       DC8 203, 203, 201, 203, 203, 201, 201, 203, 201, 201, 201, 201, 197
   \              C9CBC9C9C9C9
   \              C5          
   \   00000591   C8C9C5C5C5C5       DC8 200, 201, 197, 197, 197, 197, 191, 197, 133, 133, 97, 99, 99, 99
   \              BFC585856163
   \              6363        
   \   0000059F   63BBBEBEBEC4       DC8 99, 187, 190, 190, 190, 196, 196, 196, 197, 197, 197, 197, 201, 201
   \              C4C4C5C5C5C5
   \              C9C9        
   \   000005AD   C5C9C9C9CBCB       DC8 197, 201, 201, 201, 203, 203, 201, 201, 203, 203, 201, 203, 203
   \              C9C9CBCBC9CB
   \              CB          
   \   000005BA   C9CBCBCBC9CB       DC8 201, 203, 203, 203, 201, 203, 203, 201, 173, 149, 149, 149, 149
   \              CBC9AD959595
   \              95          
   \   000005C7   9595B9C9C9CB       DC8 149, 149, 185, 201, 201, 203, 203, 203, 201, 203, 203, 201, 203
   \              CBCBC9CBCBC9
   \              CB          
   \   000005D4   CBC9C9CBC9C9       DC8 203, 201, 201, 203, 201, 201, 201, 203, 201, 201, 201, 201, 200
   \              C9CBC9C9C9C9
   \              C8          
   \   000005E1   C9C8C5C5C5C5       DC8 201, 200, 197, 197, 197, 197, 191, 196, 133, 133, 98, 99, 99, 99
   \              BFC485856263
   \              6363        
   \   000005EF   63BDBEBEBFC4       DC8 99, 189, 190, 190, 191, 196, 191, 196, 197, 197, 197, 201, 201, 201
   \              BFC4C5C5C5C9
   \              C9C9        
   \   000005FD   C9C9C9C9CBC9       DC8 201, 201, 201, 201, 203, 201, 201, 201, 203, 201, 201, 203, 203
   \              C9C9CBC9C9CB
   \              CB          
   \   0000060A   C9CBCBC9C9CB       DC8 201, 203, 203, 201, 201, 203, 203, 201, 203, 201, 157, 149, 149
   \              CBC9CBC99D95
   \              95          
   \   00000617   95959595B5C9       DC8 149, 149, 149, 149, 181, 201, 203, 201, 201, 203, 203, 203, 203
   \              CBC9C9CBCBCB
   \              CB          
   \   00000624   C9C9CBCBC9C9       DC8 201, 201, 203, 203, 201, 201, 203, 201, 201, 201, 201, 201, 201
   \              CBC9C9C9C9C9
   \              C9          
   \   00000631   C9C5C5C5C5C5       DC8 201, 197, 197, 197, 197, 197, 196, 196, 133, 133, 99, 99, 99, 99
   \              C4C485856363
   \              6363        
   \   0000063F   63BBBEBEBFBF       DC8 99, 187, 190, 190, 191, 191, 191, 197, 197, 197, 197, 200, 201, 201
   \              BFC5C5C5C5C8
   \              C9C9        
   \   0000064D   C9C9C9C9C9C9       DC8 201, 201, 201, 201, 201, 201, 201, 203, 203, 201, 203, 203, 201
   \              C9CBCBC9CBCB
   \              C9          
   \   0000065A   C9CBCBC9CBCB       DC8 201, 203, 203, 201, 203, 203, 203, 201, 203, 203, 201, 201, 157
   \              CBC9CBCBC9C9
   \              9D          
   \   00000667   959595959599       DC8 149, 149, 149, 149, 149, 153, 165, 201, 203, 203, 201, 201, 203
   \              A5C9CBCBC9C9
   \              CB          
   \   00000674   CBC9CBCBC9C9       DC8 203, 201, 203, 203, 201, 201, 203, 201, 201, 201, 201, 201, 201
   \              CBC9C9C9C9C9
   \              C9          
   \   00000681   C9C5C5C5C5C4       DC8 201, 197, 197, 197, 197, 196, 197, 196, 133, 133, 98, 99, 99, 99
   \              C5C485856263
   \              6363        
   \   0000068F   63BDBDBEBFBF       DC8 99, 189, 189, 190, 191, 191, 196, 197, 197, 197, 197, 201, 200, 197
   \              C4C5C5C5C5C9
   \              C8C5        
   \   0000069D   C9C9C9C9CBC9       DC8 201, 201, 201, 201, 203, 201, 201, 203, 203, 201, 203, 203, 201
   \              C9CBCBC9CBCB
   \              C9          
   \   000006AA   CBCBCBC9CBCB       DC8 203, 203, 203, 201, 203, 203, 201, 203, 203, 203, 201, 203, 201
   \              C9CBCBCBC9CB
   \              C9          
   \   000006B7   C9A595959595       DC8 201, 165, 149, 149, 149, 149, 149, 149, 153, 190, 201, 201, 203
   \              959599BEC9C9
   \              CB          
   \   000006C4   C9C9CBC9C9C9       DC8 201, 201, 203, 201, 201, 201, 201, 201, 201, 201, 201, 201, 201
   \              C9C9C9C9C9C9
   \              C9          
   \   000006D1   C9C5C5C5C5BF       DC8 201, 197, 197, 197, 197, 191, 197, 196, 133, 133, 98, 99, 99, 99
   \              C5C485856263
   \              6363        
   \   000006DF   63BDBDBEBFC4       DC8 99, 189, 189, 190, 191, 196, 196, 197, 197, 197, 197, 201, 197, 201
   \              C4C5C5C5C5C9
   \              C5C9        
   \   000006ED   C9C9C9C9C9C9       DC8 201, 201, 201, 201, 201, 201, 201, 203, 203, 201, 203, 203, 201
   \              C9CBCBC9CBCB
   \              C9          
   \   000006FA   CBCBC9CBCBCB       DC8 203, 203, 201, 203, 203, 203, 201, 203, 203, 203, 203, 203, 203
   \              C9CBCBCBCBCB
   \              CB          
   \   00000707   C9CBC9B99595       DC8 201, 203, 201, 185, 149, 149, 149, 149, 149, 149, 149, 153, 171
   \              959595959599
   \              AB          
   \   00000714   C5C9CBC9C9C9       DC8 197, 201, 203, 201, 201, 201, 201, 201, 201, 201, 201, 201, 201
   \              C9C9C9C9C9C9
   \              C9          
   \   00000721   C9C5C5C5C5C5       DC8 201, 197, 197, 197, 197, 197, 197, 191, 133, 133, 97, 99, 99, 99
   \              C5BF85856163
   \              6363        
   \   0000072F   63BBBDBFBFBF       DC8 99, 187, 189, 191, 191, 191, 196, 197, 197, 197, 201, 197, 197, 201
   \              C4C5C5C5C9C5
   \              C5C9        
   \   0000073D   C9C9C9CBC9C9       DC8 201, 201, 201, 203, 201, 201, 203, 201, 201, 203, 203, 203, 201
   \              CBC9C9CBCBCB
   \              C9          
   \   0000074A   CBCBC9CBCBCB       DC8 203, 203, 201, 203, 203, 203, 203, 203, 203, 201, 203, 203, 201
   \              CBCBCBC9CBCB
   \              C9          
   \   00000757   C9CBC9C9CBC9       DC8 201, 203, 201, 201, 203, 201, 164, 149, 149, 149, 149, 150, 149
   \              A49595959596
   \              95          
   \   00000764   959696ABC5C9       DC8 149, 150, 150, 171, 197, 201, 201, 201, 201, 201, 201, 201, 201
   \              C9C9C9C9C9C9
   \              C9          
   \   00000771   C8C5C5C5C5C5       DC8 200, 197, 197, 197, 197, 197, 197, 190, 133, 133, 97, 99, 99, 99
   \              C5BE85856163
   \              6363        
   \   0000077F   63BBBDBEBEBE       DC8 99, 187, 189, 190, 190, 190, 197, 197, 197, 197, 201, 200, 197, 201
   \              C5C5C5C5C9C8
   \              C5C9        
   \   0000078D   C9C9C9C9C9C9       DC8 201, 201, 201, 201, 201, 201, 203, 201, 201, 203, 203, 201, 203
   \              CBC9C9CBCBC9
   \              CB          
   \   0000079A   CBC9C9CBCBCB       DC8 203, 201, 201, 203, 203, 203, 203, 203, 203, 201, 203, 203, 201
   \              CBCBCBC9CBCB
   \              C9          
   \   000007A7   CBCBC9C9CBCB       DC8 203, 203, 201, 201, 203, 203, 201, 203, 201, 185, 153, 153, 149
   \              C9CBC9B99999
   \              95          
   \   000007B4   959595959597       DC8 149, 149, 149, 149, 149, 151, 149, 175, 201, 201, 201, 201, 201
   \              95AFC9C9C9C9
   \              C9          
   \   000007C1   C5C5C8C5C5C5       DC8 197, 197, 200, 197, 197, 197, 197, 190, 133, 133, 96, 99, 99, 99
   \              C5BE85856063
   \              6363        
   \   000007CF   63BBBEBEBEBF       DC8 99, 187, 190, 190, 190, 191, 197, 197, 197, 197, 197, 197, 201, 201
   \              C5C5C5C5C5C5
   \              C9C9        
   \   000007DD   C9C9C9C9C9C9       DC8 201, 201, 201, 201, 201, 201, 203, 201, 201, 203, 203, 203, 203
   \              CBC9C9CBCBCB
   \              CB          
   \   000007EA   CBC9C9CBCBC9       DC8 203, 201, 201, 203, 203, 201, 203, 203, 203, 203, 203, 203, 201
   \              CBCBCBCBCBCB
   \              C9          
   \   000007F7   CBCBC9CBCBC9       DC8 203, 203, 201, 203, 203, 201, 203, 203, 201, 201, 203, 201, 200
   \              CBCBC9C9CBC9
   \              C8          
   \   00000804   BB9B95959595       DC8 187, 155, 149, 149, 149, 149, 149, 149, 150, 149, 153, 187, 197
   \              9595969599BB
   \              C5          
   \   00000811   C5C8C5C5C5C5       DC8 197, 200, 197, 197, 197, 197, 196, 191, 133, 133, 99, 99, 99, 99
   \              C4BF85856363
   \              6363        
   \   0000081F   6395BBBEBEBF       DC8 99, 149, 187, 190, 190, 191, 197, 197, 196, 200, 197, 197, 201, 201
   \              C5C5C4C8C5C5
   \              C9C9        
   \   0000082D   C9C9C9C9C9CB       DC8 201, 201, 201, 201, 201, 203, 201, 201, 201, 203, 201, 201, 203
   \              C9C9C9CBC9C9
   \              CB          
   \   0000083A   C9C9CBCBC9C9       DC8 201, 201, 203, 203, 201, 201, 203, 203, 203, 203, 203, 201, 203
   \              CBCBCBCBCBC9
   \              CB          
   \   00000847   CBC9C9CBCBC9       DC8 203, 201, 201, 203, 203, 201, 203, 203, 201, 201, 203, 201, 201
   \              CBCBC9C9CBC9
   \              C9          
   \   00000854   CBC9C9C9C5AB       DC8 203, 201, 201, 201, 197, 171, 149, 153, 149, 149, 149, 149, 149
   \              959995959595
   \              95          
   \   00000861   95969EBBC5C5       DC8 149, 150, 158, 187, 197, 197, 191, 190, 133, 133, 100, 99, 99, 99
   \              BFBE85856463
   \              6363        
   \   0000086F   639599AEBEC4       DC8 99, 149, 153, 174, 190, 196, 196, 191, 197, 197, 197, 197, 201, 201
   \              C4BFC5C5C5C5
   \              C9C9        
   \   0000087D   C9C9C9C9C9C9       DC8 201, 201, 201, 201, 201, 201, 201, 201, 203, 203, 201, 203, 203
   \              C9C9CBCBC9CB
   \              CB          
   \   0000088A   CBC9CBCBC9CB       DC8 203, 201, 203, 203, 201, 203, 203, 203, 201, 203, 203, 201, 203
   \              CBCBC9CBCBC9
   \              CB          
   \   00000897   CBC9C9CBC9C9       DC8 203, 201, 201, 203, 201, 201, 203, 201, 201, 201, 203, 201, 201
   \              CBC9C9C9CBC9
   \              C9          
   \   000008A4   CBC9C9C9C9C9       DC8 203, 201, 201, 201, 201, 201, 201, 201, 197, 189, 158, 149, 149
   \              C9C9C5BD9E95
   \              95          
   \   000008B1   969595949595       DC8 150, 149, 149, 148, 149, 149, 149, 149, 133, 133, 101, 99, 99, 99
   \              959585856563
   \              6363        
   \   000008BF   6395959696BF       DC8 99, 149, 149, 150, 150, 191, 196, 196, 197, 197, 197, 197, 201, 201
   \              C4C4C5C5C5C5
   \              C9C9        
   \   000008CD   C9C9C9C9C9CB       DC8 201, 201, 201, 201, 201, 203, 201, 201, 201, 201, 201, 203, 203
   \              C9C9C9C9C9CB
   \              CB          
   \   000008DA   C9C9CBCBC9CB       DC8 201, 201, 203, 203, 201, 203, 203, 201, 203, 203, 201, 201, 203
   \              CBC9CBCBC9C9
   \              CB          
   \   000008E7   CBC9CBCBC9C9       DC8 203, 201, 203, 203, 201, 201, 203, 201, 201, 203, 201, 201, 201
   \              CBC9C9CBC9C9
   \              C9          
   \   000008F4   C9C9C9C9C9C9       DC8 201, 201, 201, 201, 201, 201, 201, 201, 201, 201, 201, 201, 197
   \              C9C9C9C9C9C9
   \              C5          
   \   00000901   C5BFAE969595       DC8 197, 191, 174, 150, 149, 149, 148, 149, 133, 133, 101, 99, 99, 99
   \              949585856563
   \              6363        
   \   0000090F   639595959999       DC8 99, 149, 149, 149, 153, 153, 182, 191, 197, 197, 197, 197, 201, 197
   \              B6BFC5C5C5C5
   \              C9C5        
   \   0000091D   C9C9C9C9C9C9       DC8 201, 201, 201, 201, 201, 201, 201, 201, 203, 201, 201, 203, 201
   \              C9C9CBC9C9CB
   \              C9          
   \   0000092A   C9C9CBC9CBCB       DC8 201, 201, 203, 201, 203, 203, 203, 203, 203, 203, 201, 201, 203
   \              CBCBCBCBC9C9
   \              CB          
   \   00000937   CBC9CBCBC9CB       DC8 203, 201, 203, 203, 201, 203, 203, 201, 203, 203, 201, 201, 203
   \              CBC9CBCBC9C9
   \              CB          
   \   00000944   C9C9C9C9C9C9       DC8 201, 201, 201, 201, 201, 201, 201, 201, 201, 201, 201, 201, 200
   \              C9C9C9C9C9C9
   \              C8          
   \   00000951   C9C5C5C5C5BF       DC8 201, 197, 197, 197, 197, 191, 191, 196, 133, 133, 97, 99, 99, 99
   \              BFC485856163
   \              6363        
   \   0000095F   639995959999       DC8 99, 153, 149, 149, 153, 153, 150, 155, 197, 197, 197, 201, 201, 197
   \              969BC5C5C5C9
   \              C9C5        
   \   0000096D   C9C9C9C9C9C9       DC8 201, 201, 201, 201, 201, 201, 201, 203, 201, 201, 201, 203, 201
   \              C9CBC9C9C9CB
   \              C9          
   \   0000097A   C9CBCBCBCBCB       DC8 201, 203, 203, 203, 203, 203, 203, 201, 203, 203, 201, 203, 203
   \              CBC9CBCBC9CB
   \              CB          
   \   00000987   C9CBCBCBC9CB       DC8 201, 203, 203, 203, 201, 203, 201, 201, 201, 203, 201, 201, 203
   \              C9C9C9CBC9C9
   \              CB          
   \   00000994   C9C9CBC9C9C9       DC8 201, 201, 203, 201, 201, 201, 201, 201, 201, 201, 201, 197, 201
   \              C9C9C9C9C9C5
   \              C9          
   \   000009A1   C9C5C5C5C5C4       DC8 201, 197, 197, 197, 197, 196, 196, 191, 133, 133, 99, 99, 99, 99
   \              C4BF85856363
   \              6363        
   \   000009AF   639995959595       DC8 99, 153, 149, 149, 149, 149, 153, 153, 153, 185, 197, 201, 197, 197
   \              999999B9C5C9
   \              C5C5        
   \   000009BD   C9C9C9C9C9C9       DC8 201, 201, 201, 201, 201, 201, 201, 201, 201, 201, 203, 203, 201
   \              C9C9C9C9CBCB
   \              C9          
   \   000009CA   CBCBC9C9CBC9       DC8 203, 203, 201, 201, 203, 201, 201, 203, 203, 201, 201, 203, 201
   \              C9CBCBC9C9CB
   \              C9          
   \   000009D7   C9CBCBC9C9CB       DC8 201, 203, 203, 201, 201, 203, 201, 201, 203, 201, 201, 201, 203
   \              C9C9CBC9C9C9
   \              CB          
   \   000009E4   C9C9C9C9C9C9       DC8 201, 201, 201, 201, 201, 201, 201, 201, 201, 201, 201, 200, 201
   \              C9C9C9C9C9C8
   \              C9          
   \   000009F1   C9C5C5C5C4C4       DC8 201, 197, 197, 197, 196, 196, 196, 191, 133, 133, 99, 100, 99, 99
   \              C4BF85856364
   \              6363        
   \   000009FF   639B9B9B9595       DC8 99, 155, 155, 155, 149, 149, 149, 153, 151, 153, 155, 190, 197, 201
   \              959997999BBE
   \              C5C9        
   \   00000A0D   C9C9C9C9C9C9       DC8 201, 201, 201, 201, 201, 201, 201, 203, 201, 201, 203, 201, 201
   \              C9CBC9C9CBC9
   \              C9          
   \   00000A1A   CBC9C9C9CBC9       DC8 203, 201, 201, 201, 203, 201, 201, 203, 203, 201, 203, 203, 201
   \              C9CBCBC9CBCB
   \              C9          
   \   00000A27   C9CBC9C9CBCB       DC8 201, 203, 201, 201, 203, 203, 201, 201, 203, 201, 201, 201, 201
   \              C9C9CBC9C9C9
   \              C9          
   \   00000A34   C9C9CBC9C9C9       DC8 201, 201, 203, 201, 201, 201, 201, 201, 201, 201, 200, 197, 201
   \              C9C9C9C9C8C5
   \              C9          
   \   00000A41   C5C5C5C5C4C4       DC8 197, 197, 197, 197, 196, 196, 196, 191, 133, 133, 99, 100, 99, 99
   \              C4BF85856364
   \              6363        
   \   00000A4F   639B9B9B9995       DC8 99, 155, 155, 155, 153, 149, 153, 153, 149, 153, 153, 153, 153, 189
   \              999995999999
   \              99BD        
   \   00000A5D   C9C9C9C9C9C9       DC8 201, 201, 201, 201, 201, 201, 201, 201, 201, 201, 203, 201, 201
   \              C9C9C9C9CBC9
   \              C9          
   \   00000A6A   CBC9C9CBCBC9       DC8 203, 201, 201, 203, 203, 201, 201, 203, 203, 201, 203, 203, 201
   \              C9CBCBC9CBCB
   \              C9          
   \   00000A77   CBCBC9C9CBC9       DC8 203, 203, 201, 201, 203, 201, 201, 203, 203, 201, 201, 201, 201
   \              C9CBCBC9C9C9
   \              C9          
   \   00000A84   C9C9C9C9C9C9       DC8 201, 201, 201, 201, 201, 201, 201, 201, 201, 201, 201, 201, 201
   \              C9C9C9C9C9C9
   \              C9          
   \   00000A91   C5C5C5C5C4C5       DC8 197, 197, 197, 197, 196, 197, 196, 190, 133, 133, 99, 98, 99, 99
   \              C4BE85856362
   \              6363        
   \   00000A9F   639E9E9D9D99       DC8 99, 158, 158, 157, 157, 153, 155, 153, 149, 153, 155, 153, 153, 155
   \              9B9995999B99
   \              999B        
   \   00000AAD   99BBC9C9C8C9       DC8 153, 187, 201, 201, 200, 201, 201, 201, 201, 201, 201, 201, 201
   \              C9C9C9C9C9C9
   \              C9          
   \   00000ABA   CBC9C9CBCBC9       DC8 203, 201, 201, 203, 203, 201, 203, 203, 201, 201, 203, 203, 201
   \              CBCBC9C9CBCB
   \              C9          
   \   00000AC7   CBCBC9C9CBC9       DC8 203, 203, 201, 201, 203, 201, 201, 203, 201, 201, 201, 201, 201
   \              C9CBC9C9C9C9
   \              C9          
   \   00000AD4   C9C9C9C9C9C9       DC8 201, 201, 201, 201, 201, 201, 201, 201, 201, 201, 197, 201, 201
   \              C9C9C9C9C5C9
   \              C9          
   \   00000AE1   C5C5C5C5C4C5       DC8 197, 197, 197, 197, 196, 197, 191, 190, 133, 133, 99, 98, 99, 99
   \              BFBE85856362
   \              6363        
   \   00000AEF   639FA5A49F9D       DC8 99, 159, 165, 164, 159, 157, 155, 155, 153, 153, 149, 149, 155, 155
   \              9B9B99999595
   \              9B9B        
   \   00000AFD   99999BAFC5C9       DC8 153, 153, 155, 175, 197, 201, 201, 201, 201, 201, 201, 201, 201
   \              C9C9C9C9C9C9
   \              C9          
   \   00000B0A   C9C9C9CBC9C9       DC8 201, 201, 201, 203, 201, 201, 203, 203, 201, 203, 203, 201, 201
   \              CBCBC9CBCBC9
   \              C9          
   \   00000B17   CBC9C9CBC9C9       DC8 203, 201, 201, 203, 201, 201, 201, 201, 201, 201, 203, 201, 201
   \              C9C9C9C9CBC9
   \              C9          
   \   00000B24   C9C9C9C9C9C9       DC8 201, 201, 201, 201, 201, 201, 201, 201, 201, 201, 200, 201, 197
   \              C9C9C9C9C8C9
   \              C5          
   \   00000B31   C5C5C5C4C5C5       DC8 197, 197, 197, 196, 197, 197, 191, 190, 133, 133, 99, 99, 99, 99
   \              BFBE85856363
   \              6363        
   \   00000B3F   639FA5A5A5A4       DC8 99, 159, 165, 165, 165, 164, 159, 155, 153, 153, 153, 153, 153, 155
   \              9F9B99999999
   \              999B        
   \   00000B4D   99999B9999AE       DC8 153, 153, 155, 153, 153, 174, 201, 201, 201, 201, 201, 201, 201
   \              C9C9C9C9C9C9
   \              C9          
   \   00000B5A   C9C9C9C9C9C9       DC8 201, 201, 201, 201, 201, 201, 203, 201, 201, 203, 201, 201, 201
   \              CBC9C9CBC9C9
   \              C9          
   \   00000B67   CBC9C9C9C9C9       DC8 203, 201, 201, 201, 201, 201, 201, 201, 201, 201, 201, 201, 201
   \              C9C9C9C9C9C9
   \              C9          
   \   00000B74   C9C9C9C9C9C9       DC8 201, 201, 201, 201, 201, 201, 197, 201, 201, 201, 201, 201, 197
   \              C5C9C9C9C9C9
   \              C5          
   \   00000B81   C5C5C5C5C5C4       DC8 197, 197, 197, 197, 197, 196, 190, 190, 133, 133, 97, 99, 99, 99
   \              BEBE85856163
   \              6363        
   \   00000B8F   63A4A5A5A5A5       DC8 99, 164, 165, 165, 165, 165, 159, 158, 157, 158, 153, 153, 153, 153
   \              9F9E9D9E9999
   \              9999        
   \   00000B9D   959B9999999B       DC8 149, 155, 153, 153, 153, 155, 155, 155, 190, 201, 201, 201, 201
   \              9B9BBEC9C9C9
   \              C9          
   \   00000BAA   C9C9C9C9C9CB       DC8 201, 201, 201, 201, 201, 203, 203, 201, 201, 203, 201, 201, 203
   \              CBC9C9CBC9C9
   \              CB          
   \   00000BB7   C9C9C9CBC9C9       DC8 201, 201, 201, 203, 201, 201, 203, 201, 201, 201, 201, 201, 201
   \              CBC9C9C9C9C9
   \              C9          
   \   00000BC4   C9C9C9C9C9C9       DC8 201, 201, 201, 201, 201, 201, 201, 201, 201, 197, 201, 200, 197
   \              C9C9C9C5C9C8
   \              C5          
   \   00000BD1   C5C5C5C4C5BF       DC8 197, 197, 197, 196, 197, 191, 190, 191, 133, 133, 98, 99, 99, 99
   \              BEBF85856263
   \              6363        
   \   00000BDF   63A1A5A5A5A9       DC8 99, 161, 165, 165, 165, 169, 159, 164, 165, 157, 155, 155, 153, 153
   \              9FA4A59D9B9B
   \              9999        
   \   00000BED   99999B999999       DC8 153, 153, 155, 153, 153, 153, 153, 153, 155, 155, 155, 189, 201
   \              99999B9B9BBD
   \              C9          
   \   00000BFA   C9C9C9C9C9C9       DC8 201, 201, 201, 201, 201, 201, 201, 201, 201, 201, 201, 201, 201
   \              C9C9C9C9C9C9
   \              C9          
   \   00000C07   C9C9C9C9C9C9       DC8 201, 201, 201, 201, 201, 201, 201, 201, 201, 201, 201, 201, 201
   \              C9C9C9C9C9C9
   \              C9          
   \   00000C14   C9C9C9C9C9C9       DC8 201, 201, 201, 201, 201, 201, 201, 201, 197, 201, 201, 197, 197
   \              C9C9C5C9C9C5
   \              C5          
   \   00000C21   C5C5C5C5C5C4       DC8 197, 197, 197, 197, 197, 196, 190, 191, 133, 133, 99, 99, 99, 99
   \              BEBF85856363
   \              6363        
   \   00000C2F   63A5A8A1A5A9       DC8 99, 165, 168, 161, 165, 169, 165, 159, 165, 159, 158, 158, 155, 153
   \              A59FA59F9E9E
   \              9B99        
   \   00000C3D   999999959B99       DC8 153, 153, 153, 149, 155, 153, 153, 153, 155, 153, 153, 155, 155
   \              99999B99999B
   \              9B          
   \   00000C4A   9DA5C8C9C9C9       DC8 157, 165, 200, 201, 201, 201, 201, 201, 201, 201, 201, 201, 201
   \              C9C9C9C9C9C9
   \              C9          
   \   00000C57   C9C9C9C9C9C9       DC8 201, 201, 201, 201, 201, 201, 201, 201, 201, 201, 201, 201, 201
   \              C9C9C9C9C9C9
   \              C9          
   \   00000C64   C9C9C9C9C9C5       DC8 201, 201, 201, 201, 201, 197, 201, 201, 197, 201, 201, 197, 197
   \              C9C9C5C9C9C5
   \              C5          
   \   00000C71   C5C5C5C5C4BF       DC8 197, 197, 197, 197, 196, 191, 190, 187, 133, 133, 99, 99, 99, 99
   \              BEBB85856363
   \              6363        
   \   00000C7F   639FA49FA5A5       DC8 99, 159, 164, 159, 165, 165, 165, 165, 159, 164, 165, 164, 158, 155
   \              A5A59FA4A5A4
   \              9E9B        
   \   00000C8D   9B9B99999999       DC8 155, 155, 153, 153, 153, 153, 153, 155, 153, 153, 153, 155, 153
   \              999B9999999B
   \              99          
   \   00000C9A   999B9B9B9DA9       DC8 153, 155, 155, 155, 157, 169, 197, 201, 201, 201, 201, 201, 201
   \              C5C9C9C9C9C9
   \              C9          
   \   00000CA7   C9C9C9C9C9C9       DC8 201, 201, 201, 201, 201, 201, 201, 201, 201, 201, 201, 201, 201
   \              C9C9C9C9C9C9
   \              C9          
   \   00000CB4   C9C9C9C9C5C9       DC8 201, 201, 201, 201, 197, 201, 201, 201, 197, 201, 197, 197, 197
   \              C9C9C5C9C5C5
   \              C5          
   \   00000CC1   C5C5C4C5BEB5       DC8 197, 197, 196, 197, 190, 181, 181, 181, 133, 133, 98, 99, 99, 99
   \              B5B585856263
   \              6363        
   \   00000CCF   63A5A5A6A5A5       DC8 99, 165, 165, 166, 165, 165, 165, 171, 169, 165, 169, 165, 164, 158
   \              A5ABA9A5A9A5
   \              A49E        
   \   00000CDD   9E9D999B9999       DC8 158, 157, 153, 155, 153, 153, 153, 155, 153, 151, 155, 153, 153
   \              999B99979B99
   \              99          
   \   00000CEA   999B99999B9B       DC8 153, 155, 153, 153, 155, 155, 153, 155, 157, 158, 185, 201, 201
   \              999B9D9EB9C9
   \              C9          
   \   00000CF7   C9C9C9C9C9C9       DC8 201, 201, 201, 201, 201, 201, 201, 200, 201, 201, 201, 201, 201
   \              C9C8C9C9C9C9
   \              C9          
   \   00000D04   C9C5C9C9C8C8       DC8 201, 197, 201, 201, 200, 200, 201, 197, 200, 197, 197, 197, 197
   \              C9C5C8C5C5C5
   \              C5          
   \   00000D11   BDB9B5B6B5AF       DC8 189, 185, 181, 182, 181, 175, 181, 176, 133, 133, 99, 99, 99, 99
   \              B5B085856363
   \              6363        
   \   00000D1F   639F9EA9A9A5       DC8 99, 159, 158, 169, 169, 165, 173, 169, 165, 165, 169, 169, 165, 165
   \              ADA9A5A5A9A9
   \              A5A5        
   \   00000D2D   A59E9C9D9999       DC8 165, 158, 156, 157, 153, 153, 153, 153, 153, 153, 153, 153, 153
   \              999999999999
   \              99          
   \   00000D3A   9B99999B9B9B       DC8 155, 153, 153, 155, 155, 155, 153, 155, 155, 155, 153, 155, 153
   \              999B9B9B999B
   \              99          
   \   00000D47   999B9EA5BFBB       DC8 153, 155, 158, 165, 191, 187, 196, 200, 201, 201, 197, 201, 201
   \              C4C8C9C9C5C9
   \              C9          
   \   00000D54   C5C5C5C5C4BE       DC8 197, 197, 197, 197, 196, 190, 189, 187, 187, 187, 185, 185, 185
   \              BDBBBBBBB9B9
   \              B9          
   \   00000D61   B6B5B6B5B5AF       DC8 182, 181, 182, 181, 181, 175, 181, 175, 133, 133, 97, 99, 99, 99
   \              B5AF85856163
   \              6363        
   \   00000D6F   639D9EA5A4A5       DC8 99, 157, 158, 165, 164, 165, 165, 165, 165, 164, 169, 165, 169, 169
   \              A5A5A5A4A9A5
   \              A9A9        
   \   00000D7D   A9A5A9ABA9A9       DC8 169, 165, 169, 171, 169, 169, 171, 165, 169, 169, 169, 169, 169
   \              ABA5A9A9A9A9
   \              A9          
   \   00000D8A   ABABA9A9A9A5       DC8 171, 171, 169, 169, 169, 165, 169, 171, 169, 165, 169, 165, 165
   \              A9ABA9A5A9A5
   \              A5          
   \   00000D97   A5A5A5A5A5A5       DC8 165, 165, 165, 165, 165, 165, 165, 165, 165, 165, 165, 165, 165
   \              A5A5A5A5A5A5
   \              A5          
   \   00000DA4   A5A9A9ABAFAF       DC8 165, 169, 169, 171, 175, 175, 171, 169, 174, 174, 169, 165, 169
   \              ABA9AEAEA9A5
   \              A9          
   \   00000DB1   A59B9595A58E       DC8 165, 155, 149, 149, 165, 142, 147, 143, 133, 133, 99, 99, 100, 99
   \              938F85856363
   \              6463        
   \   00000DBF   64A59EA59E9E       DC8 100, 165, 158, 165, 158, 158, 165, 168, 159, 165, 169, 164, 165
   \              A5A89FA5A9A4
   \              A5          
   \   00000DCC   ABA5A5ABA9A5       DC8 171, 165, 165, 171, 169, 165, 169, 169, 169, 161, 171, 169, 169
   \              A9A9A9A1ABA9
   \              A9          
   \   00000DD9   A9A9A9A9A5A9       DC8 169, 169, 169, 169, 165, 169, 165, 169, 169, 165, 165, 169, 171
   \              A5A9A9A5A5A9
   \              AB          
   \   00000DE6   9FA4A49FA59F       DC8 159, 164, 164, 159, 165, 159, 158, 158, 159, 158, 158, 159, 161
   \              9E9E9F9E9E9F
   \              A1          
   \   00000DF3   9FA9AEABADAE       DC8 159, 169, 174, 171, 173, 174, 174, 169, 165, 165, 161, 165, 165
   \              AEA9A5A5A1A5
   \              A5          
   \   00000E00   998F8F9B8F90       DC8 153, 143, 143, 155, 143, 144, 144, 148, 143, 133, 133, 99, 99, 99
   \              90948F858563
   \              6363        
   \   00000E0E   64639B9F9EA4       DC8 100, 99, 155, 159, 158, 164, 159, 159, 165, 161, 165, 165, 165, 165
   \              9F9FA5A1A5A5
   \              A5A5        
   \   00000E1C   A9A5A5A9A8A5       DC8 169, 165, 165, 169, 168, 165, 169, 169, 169, 169, 171, 169, 169
   \              A9A9A9A9ABA9
   \              A9          
   \   00000E29   A9A9A9A9ABA9       DC8 169, 169, 169, 169, 171, 169, 165, 165, 171, 169, 169, 169, 169
   \              A5A5ABA9A9A9
   \              A9          
   \   00000E36   9E9F9E9E9F9E       DC8 158, 159, 158, 158, 159, 158, 155, 155, 157, 155, 155, 158, 169
   \              9B9B9D9B9B9E
   \              A9          
   \   00000E43   A9A9A5A59E9B       DC8 169, 169, 165, 165, 158, 155, 155, 155, 158, 157, 149, 149, 155
   \              9B9B9E9D9595
   \              9B          
   \   00000E50   9B948E959094       DC8 155, 148, 142, 149, 144, 148, 142, 139, 142, 133, 133, 99, 99, 100
   \              8E8B8E858563
   \              6364        
   \   00000E5E   64639B9F9FA4       DC8 100, 99, 155, 159, 159, 164, 165, 165, 165, 161, 165, 165, 165, 171
   \              A5A5A5A1A5A5
   \              A5AB        
   \   00000E6C   A5A5A5A9A4A5       DC8 165, 165, 165, 169, 164, 165, 171, 169, 169, 173, 169, 169, 165
   \              ABA9A9ADA9A9
   \              A5          
   \   00000E79   ABA9A9A9ABA9       DC8 171, 169, 169, 169, 171, 169, 169, 169, 169, 168, 171, 165, 166
   \              A9A9A9A8ABA5
   \              A6          
   \   00000E86   9B9E9D9D9E9B       DC8 155, 158, 157, 157, 158, 155, 153, 155, 153, 153, 155, 155, 155
   \              999B99999B9B
   \              9B          
   \   00000E93   959999959595       DC8 149, 153, 153, 149, 149, 149, 149, 142, 147, 149, 149, 153, 155
   \              958E93959599
   \              9B          
   \   00000EA0   9B958E958F95       DC8 155, 149, 142, 149, 143, 149, 142, 139, 143, 133, 133, 99, 100, 99
   \              8E8B8F858563
   \              6463        
   \   00000EAE   63639BA49E9E       DC8 99, 99, 155, 164, 158, 158, 165, 165, 158, 165, 164, 164, 159, 165
   \              A5A59EA5A4A4
   \              9FA5        
   \   00000EBC   A5A5A9A5A5A9       DC8 165, 165, 169, 165, 165, 169, 169, 169, 169, 169, 168, 169, 168
   \              A9A9A9A9A8A9
   \              A8          
   \   00000EC9   A9A9A9ABA9AB       DC8 169, 169, 169, 171, 169, 171, 169, 171, 165, 169, 169, 169, 169
   \              A9ABA5A9A9A9
   \              A9          
   \   00000ED6   A4A49F9FA49E       DC8 164, 164, 159, 159, 164, 158, 157, 158, 157, 155, 155, 153, 149
   \              9D9E9D9B9B99
   \              95          
   \   00000EE3   8F948F8E8E8E       DC8 143, 148, 143, 142, 142, 142, 139, 141, 143, 149, 151, 155, 155
   \              8B8D8F95979B
   \              9B          
   \   00000EF0   9B998E958E94       DC8 155, 153, 142, 149, 142, 148, 143, 142, 144, 133, 133, 99, 99, 100
   \              8F8E90858563
   \              6364        
   \   00000EFE   64649E9E9E9F       DC8 100, 100, 158, 158, 158, 159, 165, 159, 161, 156, 161, 164, 165
   \              A59FA19CA1A4
   \              A5          
   \   00000F0B   A4A5A5A9A5A5       DC8 164, 165, 165, 169, 165, 165, 169, 169, 165, 165, 169, 165, 165
   \              A9A9A5A5A9A5
   \              A5          
   \   00000F18   ABA9A9A5A9A9       DC8 171, 169, 169, 165, 169, 169, 169, 171, 169, 165, 169, 171, 169
   \              A9ABA9A5A9AB
   \              A9          
   \   00000F25   AB9B99999999       DC8 171, 155, 153, 153, 153, 153, 148, 143, 147, 142, 142, 142, 142
   \              948F938E8E8E
   \              8E          
   \   00000F32   8B8D8D8B8B8E       DC8 139, 141, 141, 139, 139, 142, 142, 142, 142, 149, 149, 153, 155
   \              8E8E8E959599
   \              9B          
   \   00000F3F   9B9B9B8D958F       DC8 155, 155, 155, 141, 149, 143, 148, 143, 139, 149, 133, 133, 99, 100
   \              948F8B958585
   \              6364        
   \   00000F4D   6463639C9E9B       DC8 100, 99, 99, 156, 158, 155, 157, 164, 158, 158, 165, 157, 159, 169
   \              9DA49E9EA59D
   \              9FA9        
   \   00000F5B   A49FA5A9A5A5       DC8 164, 159, 165, 169, 165, 165, 169, 168, 165, 169, 169, 169, 165
   \              A9A8A5A9A9A9
   \              A5          
   \   00000F68   A9ABA9A5A9A9       DC8 169, 171, 169, 165, 169, 169, 169, 169, 169, 169, 169, 169, 169
   \              A9A9A9A9A9A9
   \              A9          
   \   00000F75   A9908B8B8D8D       DC8 169, 144, 139, 139, 141, 141, 139, 141, 141, 139, 139, 142, 141
   \              8B8D8D8B8B8E
   \              8D          
   \   00000F82   8D8D8D8D8E8F       DC8 141, 141, 141, 141, 142, 143, 142, 142, 142, 144, 149, 153, 155
   \              8E8E8E909599
   \              9B          
   \   00000F8F   999B9B8D968F       DC8 153, 155, 155, 141, 150, 143, 142, 149, 155, 158, 133, 133, 99, 99
   \              8E959B9E8585
   \              6363        
   \   00000F9D   6463649E9D9D       DC8 100, 99, 100, 158, 157, 157, 159, 159, 158, 159, 158, 158, 165, 165
   \              9F9F9E9F9E9E
   \              A5A5        
   \   00000FAB   A5A5A9A8A5A5       DC8 165, 165, 169, 168, 165, 165, 169, 165, 169, 165, 171, 169, 165
   \              A9A5A9A5ABA9
   \              A5          
   \   00000FB8   A9A5A5ABA9A5       DC8 169, 165, 165, 171, 169, 165, 169, 169, 169, 169, 169, 169, 165
   \              A9A9A9A9A9A9
   \              A5          
   \   00000FC5   A5958F949595       DC8 165, 149, 143, 148, 149, 149, 149, 142, 142, 139, 141, 149, 141
   \              958E8E8B8D95
   \              8D          
   \   00000FD2   8D8D8D8D8F8E       DC8 141, 141, 141, 141, 143, 142, 142, 143, 142, 143, 149, 153, 153
   \              8E8F8E8F9599
   \              99          
   \   00000FDF   999B9B8D9995       DC8 153, 155, 155, 141, 153, 149, 158, 157, 153, 157, 133, 133, 99, 100
   \              9E9D999D8585
   \              6364        
   \   00000FED   646463858585       DC8 100, 100, 99, 133, 133, 133, 133, 133, 133, 133, 133, 133, 133, 133
   \              858585858585
   \              8585        
   \   00000FFB   858585858585       DC8 133, 133, 133, 133, 133, 133, 133, 133, 133, 133, 133, 133, 133
   \              858585858585
   \              85          
   \   00001008   858585858585       DC8 133, 133, 133, 133, 133, 133, 99, 99, 99, 133, 133, 133, 133, 133
   \              636363858585
   \              8585        
   \   00001016   858585858585       DC8 133, 133, 133, 133, 133, 133, 133, 133, 133, 133, 133, 133, 133
   \              858585858585
   \              85          
   \   00001023   858585858585       DC8 133, 133, 133, 133, 133, 133, 133, 133, 133, 133, 133, 133, 133
   \              858585858585
   \              85          
   \   00001030   858585858585       DC8 133, 133, 133, 133, 133, 133, 133, 133, 133, 133, 133, 99, 99, 99
   \              858585858563
   \              6363        
   \   0000103E   638561616285       DC8 99, 133, 97, 97, 98, 133, 133, 133, 133, 133, 133, 101, 99, 99, 99
   \              858585858565
   \              636363      
   \   0000104D   858585858585       DC8 133, 133, 133, 133, 133, 133, 133, 133, 133, 133, 133, 133, 133
   \              858585858585
   \              85          
   \   0000105A   858585858585       DC8 133, 133, 133, 133, 133, 133, 133, 133, 133, 133, 133, 133, 133
   \              858585858585
   \              85          
   \   00001067   858585858585       DC8 133, 133, 133, 133, 133, 133, 133, 133, 133, 133, 133, 133, 133
   \              858585858585
   \              85          
   \   00001074   858579636363       DC8 133, 133, 121, 99, 99, 99, 133, 133, 133, 133, 133, 133, 133, 133
   \              858585858585
   \              8585        
   \   00001082   858585858585       DC8 133, 133, 133, 133, 133, 133, 133, 133, 133, 133, 133, 133, 133
   \              858585858585
   \              85          
   \   0000108F   858585858585       DC8 133, 133, 133, 133, 133, 133, 133, 133, 133, 133, 133, 133, 133
   \              858585858585
   \              85          
   \   0000109C   858585858585       DC8 133, 133, 133, 133, 133, 133, 133, 133, 133, 133, 133, 133, 133
   \              858585858585
   \              85          
   \   000010A9   858585858585       DC8 133, 133, 133, 133, 133, 133, 133, 133, 133, 133, 133, 133, 133
   \              858585858585
   \              85          
   \   000010B6   858585858585       DC8 133, 133, 133, 133, 133, 133, 133, 133, 133, 133, 133, 133, 133
   \              858585858585
   \              85          
   \   000010C3   858585858585       DC8 133, 133, 133, 133, 133, 133, 133, 133, 133, 133, 133, 133, 133
   \              858585858585
   \              85          
   \   000010D0   858585858585       DC8 133, 133, 133, 133, 133, 133, 133, 133, 133, 133, 133, 97, 100, 100
   \              858585858561
   \              6464        
   \   000010DE   636385858585       DC8 99, 99, 133, 133, 133, 133, 133, 133, 133, 133, 133, 133, 133, 133
   \              858585858585
   \              8585        
   \   000010EC   858585858585       DC8 133, 133, 133, 133, 133, 133, 133, 133, 133, 133, 133, 133, 133
   \              858585858585
   \              85          
   \   000010F9   858585858585       DC8 133, 133, 133, 133, 133, 133, 133, 133, 133, 133, 133, 133, 133
   \              858585858585
   \              85          
   \   00001106   858585858585       DC8 133, 133, 133, 133, 133, 133, 133, 133, 133, 133, 133, 133, 133
   \              858585858585
   \              85          
   \   00001113   858585858585       DC8 133, 133, 133, 133, 133, 133, 133, 133, 133, 133, 133, 133, 133
   \              858585858585
   \              85          
   \   00001120   858585858585       DC8 133, 133, 133, 133, 133, 133, 133, 133, 133, 133, 133, 97, 99, 99
   \              858585858561
   \              6363        
   \   0000112E   646485858585       DC8 100, 100, 133, 133, 133, 133, 133, 133, 133, 133, 133, 133, 133
   \              858585858585
   \              85          
   \   0000113B   858585858585       DC8 133, 133, 133, 133, 133, 133, 133, 133, 133, 133, 133, 133, 133
   \              858585858585
   \              85          
   \   00001148   858585868585       DC8 133, 133, 133, 134, 133, 133, 133, 133, 133, 133, 133, 133, 133
   \              858585858585
   \              85          
   \   00001155   858585858585       DC8 133, 133, 133, 133, 133, 133, 133, 133, 133, 133, 133, 133, 133
   \              858585858585
   \              85          
   \   00001162   858585858585       DC8 133, 133, 133, 133, 133, 133, 133, 133, 133, 133, 133, 133, 133
   \              858585858585
   \              85          
   \   0000116F   858585858585       DC8 133, 133, 133, 133, 133, 133, 133, 133, 133, 133, 133, 133, 99, 99
   \              858585858585
   \              6363        
   \   0000117D   646463858585       DC8 100, 100, 99, 133, 133, 133, 133, 133, 133, 133, 133, 133, 133, 133
   \              858585858585
   \              8585        
   \   0000118B   858585858585       DC8 133, 133, 133, 133, 133, 133, 133, 133, 133, 133, 133, 133, 133
   \              858585858585
   \              85          
   \   00001198   858585858585       DC8 133, 133, 133, 133, 133, 133, 133, 133, 133, 133, 133, 133, 133
   \              858585858585
   \              85          
   \   000011A5   858585858585       DC8 133, 133, 133, 133, 133, 133, 133, 133, 133, 133, 133, 133, 133
   \              858585858585
   \              85          
   \   000011B2   858585858585       DC8 133, 133, 133, 133, 133, 133, 133, 133, 133, 133, 133, 133, 133
   \              858585858585
   \              85          
   \   000011BF   858585858585       DC8 133, 133, 133, 133, 133, 133, 133, 133, 133, 133, 133, 134, 101
   \              858585858586
   \              65          
   \   000011CC   64636363B5B9       DC8 100, 99, 99, 99, 181, 185, 185, 185, 187, 187, 187, 187, 190, 190
   \              B9B9BBBBBBBB
   \              BEBE        
   \   000011DA   BDBEBE909093       DC8 189, 190, 190, 144, 144, 147, 142, 143, 149, 196, 197, 197, 197
   \              8E8F95C4C5C5
   \              C5          
   \   000011E7   C5C5C9C9C8C9       DC8 197, 197, 201, 201, 200, 201, 201, 201, 201, 201, 201, 201, 201
   \              C9C9C9C9C9C9
   \              C9          
   \   000011F4   C9C9C9CBC9C9       DC8 201, 201, 201, 203, 201, 201, 203, 201, 201, 203, 201, 201, 201
   \              CBC9C9CBC9C9
   \              C9          
   \   00001201   CBC9C9C9C9C9       DC8 203, 201, 201, 201, 201, 201, 201, 201, 197, 197, 197, 197, 197
   \              C9C9C5C5C5C5
   \              C5          
   \   0000120E   C5C5C4BFC4BE       DC8 197, 197, 196, 191, 196, 190, 190, 190, 190, 187, 187, 133, 133
   \              BEBEBEBBBB85
   \              85          
   \   0000121B   6563646464B9       DC8 101, 99, 100, 100, 100, 185, 187, 187, 185, 187, 187, 187, 189, 190
   \              BBBBB9BBBBBB
   \              BDBE        
   \   00001229   BDBEBFBFBB95       DC8 189, 190, 191, 191, 187, 149, 144, 143, 144, 149, 158, 197, 200
   \              908F90959EC5
   \              C8          
   \   00001236   C8C5C9C9C9C9       DC8 200, 197, 201, 201, 201, 201, 201, 201, 201, 201, 201, 201, 201
   \              C9C9C9C9C9C9
   \              C9          
   \   00001243   CBC9C9CBCBC9       DC8 203, 201, 201, 203, 203, 201, 203, 203, 201, 201, 203, 201, 201
   \              CBCBC9C9CBC9
   \              C9          
   \   00001250   CBC9C9C9C9C9       DC8 203, 201, 201, 201, 201, 201, 201, 201, 201, 197, 197, 200, 197
   \              C9C9C9C5C5C8
   \              C5          
   \   0000125D   C5C5C5C4C5C4       DC8 197, 197, 197, 196, 197, 196, 190, 190, 191, 190, 187, 189, 133
   \              BEBEBFBEBBBD
   \              85          
   \   0000126A   856564646363       DC8 133, 101, 100, 100, 99, 99, 185, 187, 187, 187, 189, 187, 187, 190
   \              B9BBBBBBBDBB
   \              BBBE        
   \   00001278   BEBEBFC4BFC4       DC8 190, 190, 191, 196, 191, 196, 187, 144, 143, 149, 148, 144, 176
   \              BB908F959490
   \              B0          
   \   00001285   C8C8C5C9C9C9       DC8 200, 200, 197, 201, 201, 201, 201, 201, 201, 201, 203, 203, 201
   \              C9C9C9C9CBCB
   \              C9          
   \   00001292   CBCBC9CBCBCB       DC8 203, 203, 201, 203, 203, 203, 203, 203, 203, 201, 203, 203, 203
   \              CBCBCBC9CBCB
   \              CB          
   \   0000129F   C9CBCBC9CBC9       DC8 201, 203, 203, 201, 203, 201, 201, 201, 201, 201, 201, 201, 201
   \              C9C9C9C9C9C9
   \              C9          
   \   000012AC   C5C5C5C5C4C5       DC8 197, 197, 197, 197, 196, 197, 196, 191, 191, 191, 190, 190, 190
   \              C4BFBFBFBEBE
   \              BE          
   \   000012B9   858563636363       DC8 133, 133, 99, 99, 99, 99, 100
   \              64          
    111          //uint8 pic[80][70];

   \                                 In section .text, align 2, keep-with-next
    112          void delay(int num)                                   
    113          { 
    114               unsigned int ii,jj; 
    115              for(ii=0;ii<num;ii++) 
   \                     delay:
   \   00000000   0021               MOVS     R1,#+0
   \   00000002   03E0               B.N      ??delay_0
    116                 for(jj=0;jj<59;jj++); 
   \                     ??delay_1:
   \   00000004   521C               ADDS     R2,R2,#+1
   \                     ??delay_2:
   \   00000006   3B2A               CMP      R2,#+59
   \   00000008   FCD3               BCC.N    ??delay_1
   \   0000000A   491C               ADDS     R1,R1,#+1
   \                     ??delay_0:
   \   0000000C   8142               CMP      R1,R0
   \   0000000E   01D2               BCS.N    ??delay_3
   \   00000010   0022               MOVS     R2,#+0
   \   00000012   F8E7               B.N      ??delay_2
    117          }
   \                     ??delay_3:
   \   00000014   7047               BX       LR               ;; return
    118          
    119          

   \                                 In section .text, align 2, keep-with-next
    120          void IRQ_Init(void)
    121          {
    122          	//PORTD_PCR8 = PORT_PCR_MUX(0x1); // GPIO is alt1 function for this pin
    123                  PORTA_PCR15 = PORT_PCR_MUX(0x1);
   \                     IRQ_Init:
   \   00000000   ........           LDR.W    R0,??DataTable16  ;; 0x4004903c
   \   00000004   4FF48071           MOV      R1,#+256
   \   00000008   0160               STR      R1,[R0, #+0]
    124          	/* Configure the PTE26 pin for rising edge interrupts */
    125          	//PORTD_PCR8 |= PORT_PCR_IRQC(0x9);
    126                  PORTA_PCR15 |= PORT_PCR_IRQC(0x9);
   \   0000000A   ....               LDR.N    R0,??DataTable16  ;; 0x4004903c
   \   0000000C   0068               LDR      R0,[R0, #+0]
   \   0000000E   50F41020           ORRS     R0,R0,#0x90000
   \   00000012   ....               LDR.N    R1,??DataTable16  ;; 0x4004903c
   \   00000014   0860               STR      R0,[R1, #+0]
    127                  /*
    128                  0000 Interrupt/DMA Request disabled.
    129                  0001 DMA Request on rising edge.
    130                  0010 DMA Request on falling edge.
    131                  0011 DMA Request on either edge.
    132                  0100 Reserved.
    133                  1000 Interrupt when logic zero.
    134                  1001 Interrupt on rising edge.
    135                  1010 Interrupt on falling edge.
    136                  1011 Interrupt on either edge.
    137                  1100 Interrupt when logic one.
    138                  */
    139          	//PORTE_PCR26 = 1 << 8 | 0xA << 16 | 1;
    140          	//GPIOD_PDDR |= 0 << 8;
    141                  //GPIOA_PDDR |= 0 << 15;
    142                  
    143                  PORTC_PCR0 = PORT_PCR_MUX(0x1);
   \   00000016   ....               LDR.N    R0,??DataTable16_1  ;; 0x4004b000
   \   00000018   4FF48071           MOV      R1,#+256
   \   0000001C   0160               STR      R1,[R0, #+0]
    144                  GPIOC_PDDR = 0x00000000u;
   \   0000001E   ....               LDR.N    R0,??DataTable16_2  ;; 0x400ff094
   \   00000020   0021               MOVS     R1,#+0
   \   00000022   0160               STR      R1,[R0, #+0]
    145          }
   \   00000024   7047               BX       LR               ;; return
    146          void Timer0( unsigned int timeout );

   \                                 In section .text, align 2, keep-with-next
    147          void ISR_PTA(void)    //行同步
    148          {
   \                     ISR_PTA:
   \   00000000   80B5               PUSH     {R7,LR}
    149          	PORTA_ISFR = 1 << 15;
   \   00000002   ....               LDR.N    R0,??DataTable16_3  ;; 0x400490a0
   \   00000004   4FF40041           MOV      R1,#+32768
   \   00000008   0160               STR      R1,[R0, #+0]
    150                  
    151                  //GPIOA_PTOR |= 1 << 10;
    152          	//delay2();
    153                  disable_irq(87);
   \   0000000A   5720               MOVS     R0,#+87
   \   0000000C   ........           BL       disable_irq
    154                  //enable_irq(90);
    155              
    156                  if(LieCount==GetPic[CLie]) 
   \   00000010   ....               LDR.N    R0,??DataTable16_4
   \   00000012   0068               LDR      R0,[R0, #+0]
   \   00000014   ....               LDR.N    R1,??DataTable16_5
   \   00000016   0968               LDR      R1,[R1, #+0]
   \   00000018   ........           ADR.W    R2,GetPic
   \   0000001C   52F82110           LDR      R1,[R2, R1, LSL #+2]
   \   00000020   8842               CMP      R0,R1
   \   00000022   21D1               BNE.N    ??ISR_PTA_0
    157                  {  
    158                    delay(3);   
   \   00000024   0320               MOVS     R0,#+3
   \   00000026   ........           BL       delay
    159                    for(RowCount=0;RowCount<LineEnd;RowCount++)
   \   0000002A   ....               LDR.N    R0,??DataTable16_6
   \   0000002C   0021               MOVS     R1,#+0
   \   0000002E   0160               STR      R1,[R0, #+0]
   \   00000030   11E0               B.N      ??ISR_PTA_1
    160                    {  
    161                      Pic[CLie][RowCount] = (GPIOC_PDIR & (~GPIO_PDIR_PDI(0))) * 0xFF; 
   \                     ??ISR_PTA_2:
   \   00000032   ....               LDR.N    R0,??DataTable16_6
   \   00000034   0068               LDR      R0,[R0, #+0]
   \   00000036   ....               LDR.N    R1,??DataTable16_5
   \   00000038   0968               LDR      R1,[R1, #+0]
   \   0000003A   6422               MOVS     R2,#+100
   \   0000003C   ....               LDR.N    R3,??DataTable16_7
   \   0000003E   02FB0131           MLA      R1,R2,R1,R3
   \   00000042   ....               LDR.N    R2,??DataTable16_8  ;; 0x400ff090
   \   00000044   1268               LDR      R2,[R2, #+0]
   \   00000046   FF23               MOVS     R3,#+255
   \   00000048   5A43               MULS     R2,R3,R2
   \   0000004A   4254               STRB     R2,[R0, R1]
    162                      /*temp = (GPIOC_PDIR & 0x00000001u);
    163                      if(temp > 0)
    164                      {
    165                        temp = 0;
    166                      }*/
    167                    }
   \   0000004C   ....               LDR.N    R0,??DataTable16_6
   \   0000004E   0068               LDR      R0,[R0, #+0]
   \   00000050   401C               ADDS     R0,R0,#+1
   \   00000052   ....               LDR.N    R1,??DataTable16_6
   \   00000054   0860               STR      R0,[R1, #+0]
   \                     ??ISR_PTA_1:
   \   00000056   ....               LDR.N    R0,??DataTable16_6
   \   00000058   0068               LDR      R0,[R0, #+0]
   \   0000005A   6428               CMP      R0,#+100
   \   0000005C   E9D3               BCC.N    ??ISR_PTA_2
    168                   CLie++; 
   \   0000005E   ....               LDR.N    R0,??DataTable16_5
   \   00000060   0068               LDR      R0,[R0, #+0]
   \   00000062   401C               ADDS     R0,R0,#+1
   \   00000064   ....               LDR.N    R1,??DataTable16_5
   \   00000066   0860               STR      R0,[R1, #+0]
    169                  }
    170                  LieCount++; 
   \                     ??ISR_PTA_0:
   \   00000068   ....               LDR.N    R0,??DataTable16_4
   \   0000006A   0068               LDR      R0,[R0, #+0]
   \   0000006C   401C               ADDS     R0,R0,#+1
   \   0000006E   ....               LDR.N    R1,??DataTable16_4
   \   00000070   0860               STR      R0,[R1, #+0]
    171                  if(CLie==60)GPflag=1;
   \   00000072   ....               LDR.N    R0,??DataTable16_5
   \   00000074   0068               LDR      R0,[R0, #+0]
   \   00000076   3C28               CMP      R0,#+60
   \   00000078   02D1               BNE.N    ??ISR_PTA_3
   \   0000007A   ....               LDR.N    R0,??DataTable16_9
   \   0000007C   0121               MOVS     R1,#+1
   \   0000007E   0160               STR      R1,[R0, #+0]
    172                  Timer0(1);
   \                     ??ISR_PTA_3:
   \   00000080   0120               MOVS     R0,#+1
   \   00000082   ........           BL       Timer0
    173                  PIT_TCTRL0 |= PIT_TCTRL_TEN_MASK;
   \   00000086   ....               LDR.N    R0,??DataTable16_10  ;; 0x40037108
   \   00000088   0068               LDR      R0,[R0, #+0]
   \   0000008A   50F00100           ORRS     R0,R0,#0x1
   \   0000008E   ....               LDR.N    R1,??DataTable16_10  ;; 0x40037108
   \   00000090   0860               STR      R0,[R1, #+0]
    174                  enable_irq(68);
   \   00000092   4420               MOVS     R0,#+68
   \   00000094   ........           BL       enable_irq
    175          }
   \   00000098   01BD               POP      {R0,PC}          ;; return
    176          

   \                                 In section .text, align 2, keep-with-next
    177          void ISR_PTD(void)    //场同步
    178          {
   \                     ISR_PTD:
   \   00000000   80B5               PUSH     {R7,LR}
    179          	PORTD_ISFR = 1 << 8;
   \   00000002   ....               LDR.N    R0,??DataTable16_11  ;; 0x4004c0a0
   \   00000004   4FF48071           MOV      R1,#+256
   \   00000008   0160               STR      R1,[R0, #+0]
    180          	//GPIOA_PTOR |= 1 << 11;
    181                  //disable_irq(90);
    182                  
    183                  Timer0(0x15A0);
   \   0000000A   4FF4AD50           MOV      R0,#+5536
   \   0000000E   ........           BL       Timer0
    184                  
    185                  PIT_TCTRL0 |= PIT_TCTRL_TEN_MASK;
   \   00000012   ....               LDR.N    R0,??DataTable16_10  ;; 0x40037108
   \   00000014   0068               LDR      R0,[R0, #+0]
   \   00000016   50F00100           ORRS     R0,R0,#0x1
   \   0000001A   ....               LDR.N    R1,??DataTable16_10  ;; 0x40037108
   \   0000001C   0860               STR      R0,[R1, #+0]
    186                  enable_irq(68);
   \   0000001E   4420               MOVS     R0,#+68
   \   00000020   ........           BL       enable_irq
    187                  
    188                  while(GPflag==0);     
   \                     ??ISR_PTD_0:
   \   00000024   ....               LDR.N    R0,??DataTable16_9
   \   00000026   0068               LDR      R0,[R0, #+0]
   \   00000028   0028               CMP      R0,#+0
   \   0000002A   FBD0               BEQ.N    ??ISR_PTD_0
    189          }
   \   0000002C   01BD               POP      {R0,PC}          ;; return
    190          
    191          

   \                                 In section .text, align 2, keep-with-next
    192          void Timer_Init()
    193          {
    194            SIM_SCGC6 |= SIM_SCGC6_PIT_MASK;
   \                     Timer_Init:
   \   00000000   ....               LDR.N    R0,??DataTable16_12  ;; 0x4004803c
   \   00000002   0068               LDR      R0,[R0, #+0]
   \   00000004   50F40000           ORRS     R0,R0,#0x800000
   \   00000008   ....               LDR.N    R1,??DataTable16_12  ;; 0x4004803c
   \   0000000A   0860               STR      R0,[R1, #+0]
    195            PIT_MCR &= ~PIT_MCR_MDIS_MASK;
   \   0000000C   ....               LDR.N    R0,??DataTable16_13  ;; 0x40037000
   \   0000000E   0068               LDR      R0,[R0, #+0]
   \   00000010   30F00200           BICS     R0,R0,#0x2
   \   00000014   ....               LDR.N    R1,??DataTable16_13  ;; 0x40037000
   \   00000016   0860               STR      R0,[R1, #+0]
    196          }
   \   00000018   7047               BX       LR               ;; return

   \                                 In section .text, align 2, keep-with-next
    197          void Timer0( unsigned int timeout )
    198          {
    199              PIT_LDVAL0 = timeout;
   \                     Timer0:
   \   00000000   ....               LDR.N    R1,??DataTable16_14  ;; 0x40037100
   \   00000002   0860               STR      R0,[R1, #+0]
    200              PIT_TCTRL0 |= PIT_TCTRL_TEN_MASK |PIT_TCTRL_TIE_MASK;
   \   00000004   ....               LDR.N    R0,??DataTable16_10  ;; 0x40037108
   \   00000006   0068               LDR      R0,[R0, #+0]
   \   00000008   50F00300           ORRS     R0,R0,#0x3
   \   0000000C   ....               LDR.N    R1,??DataTable16_10  ;; 0x40037108
   \   0000000E   0860               STR      R0,[R1, #+0]
    201              //enable_irq(68);
    202          }
   \   00000010   7047               BX       LR               ;; return

   \                                 In section .text, align 2, keep-with-next
    203          void PIT0_ISR(void)
    204          {
   \                     PIT0_ISR:
   \   00000000   80B5               PUSH     {R7,LR}
    205              PIT_TFLG0 |= PIT_TFLG_TIF_MASK;
   \   00000002   ....               LDR.N    R0,??DataTable16_15  ;; 0x4003710c
   \   00000004   0068               LDR      R0,[R0, #+0]
   \   00000006   50F00100           ORRS     R0,R0,#0x1
   \   0000000A   ....               LDR.N    R1,??DataTable16_15  ;; 0x4003710c
   \   0000000C   0860               STR      R0,[R1, #+0]
    206              PIT_TCTRL0 &= ~PIT_TCTRL_TEN_MASK;
   \   0000000E   ....               LDR.N    R0,??DataTable16_10  ;; 0x40037108
   \   00000010   0068               LDR      R0,[R0, #+0]
   \   00000012   4008               LSRS     R0,R0,#+1
   \   00000014   4000               LSLS     R0,R0,#+1
   \   00000016   ....               LDR.N    R1,??DataTable16_10  ;; 0x40037108
   \   00000018   0860               STR      R0,[R1, #+0]
    207              //GPIOA_PTOR |= 1 << 10;
    208              disable_irq(68);
   \   0000001A   4420               MOVS     R0,#+68
   \   0000001C   ........           BL       disable_irq
    209              
    210              if(GPflag==0)
   \   00000020   ....               LDR.N    R0,??DataTable16_9
   \   00000022   0068               LDR      R0,[R0, #+0]
   \   00000024   0028               CMP      R0,#+0
   \   00000026   05D1               BNE.N    ??PIT0_ISR_0
    211              {
    212                delay(10);
   \   00000028   0A20               MOVS     R0,#+10
   \   0000002A   ........           BL       delay
    213                enable_irq(87);
   \   0000002E   5720               MOVS     R0,#+87
   \   00000030   ........           BL       enable_irq
    214              }
    215               
    216          }
   \                     ??PIT0_ISR_0:
   \   00000034   01BD               POP      {R0,PC}          ;; return

   \                                 In section .text, align 2, keep-with-next
    217          void Timer1( unsigned int timeout )
    218          {
    219              PIT_LDVAL1 = timeout;
   \                     Timer1:
   \   00000000   ....               LDR.N    R1,??DataTable16_16  ;; 0x40037110
   \   00000002   0860               STR      R0,[R1, #+0]
    220              
    221              PIT_TCTRL1 |= PIT_TCTRL_TEN_MASK |PIT_TCTRL_TIE_MASK;
   \   00000004   ....               LDR.N    R0,??DataTable16_17  ;; 0x40037118
   \   00000006   0068               LDR      R0,[R0, #+0]
   \   00000008   50F00300           ORRS     R0,R0,#0x3
   \   0000000C   ....               LDR.N    R1,??DataTable16_17  ;; 0x40037118
   \   0000000E   0860               STR      R0,[R1, #+0]
    222              //enable_irq(69);
    223          }
   \   00000010   7047               BX       LR               ;; return

   \                                 In section .text, align 2, keep-with-next
    224          void PIT1_ISR(void)
    225          {
   \                     PIT1_ISR:
   \   00000000   80B5               PUSH     {R7,LR}
    226              PIT_TFLG1 |= PIT_TFLG_TIF_MASK;
   \   00000002   ....               LDR.N    R0,??DataTable16_18  ;; 0x4003711c
   \   00000004   0068               LDR      R0,[R0, #+0]
   \   00000006   50F00100           ORRS     R0,R0,#0x1
   \   0000000A   ....               LDR.N    R1,??DataTable16_18  ;; 0x4003711c
   \   0000000C   0860               STR      R0,[R1, #+0]
    227              GPIOA_PTOR |= 1 << 10;
   \   0000000E   ....               LDR.N    R0,??DataTable16_19  ;; 0x400ff00c
   \   00000010   0068               LDR      R0,[R0, #+0]
   \   00000012   50F48060           ORRS     R0,R0,#0x400
   \   00000016   ....               LDR.N    R1,??DataTable16_19  ;; 0x400ff00c
   \   00000018   0860               STR      R0,[R1, #+0]
    228              
    229              disable_irq(69);
   \   0000001A   4520               MOVS     R0,#+69
   \   0000001C   ........           BL       disable_irq
    230          }
   \   00000020   01BD               POP      {R0,PC}          ;; return

   \                                 In section .text, align 2, keep-with-next
    231          void Timer2( unsigned int timeout )
    232          {
    233              PIT_LDVAL2 = timeout;
   \                     Timer2:
   \   00000000   ....               LDR.N    R1,??DataTable16_20  ;; 0x40037120
   \   00000002   0860               STR      R0,[R1, #+0]
    234              PIT_TCTRL2 |= PIT_TCTRL_TEN_MASK |PIT_TCTRL_TIE_MASK;
   \   00000004   ....               LDR.N    R0,??DataTable16_21  ;; 0x40037128
   \   00000006   0068               LDR      R0,[R0, #+0]
   \   00000008   50F00300           ORRS     R0,R0,#0x3
   \   0000000C   ....               LDR.N    R1,??DataTable16_21  ;; 0x40037128
   \   0000000E   0860               STR      R0,[R1, #+0]
    235              //enable_irq(70);
    236          }
   \   00000010   7047               BX       LR               ;; return

   \                                 In section .text, align 2, keep-with-next
    237          void PIT2_ISR(void)
    238          {
   \                     PIT2_ISR:
   \   00000000   80B5               PUSH     {R7,LR}
    239              PIT_TFLG2 |= PIT_TFLG_TIF_MASK;
   \   00000002   ....               LDR.N    R0,??DataTable16_22  ;; 0x4003712c
   \   00000004   0068               LDR      R0,[R0, #+0]
   \   00000006   50F00100           ORRS     R0,R0,#0x1
   \   0000000A   ....               LDR.N    R1,??DataTable16_22  ;; 0x4003712c
   \   0000000C   0860               STR      R0,[R1, #+0]
    240              GPIOA_PTOR |= 1 << 10;
   \   0000000E   ....               LDR.N    R0,??DataTable16_19  ;; 0x400ff00c
   \   00000010   0068               LDR      R0,[R0, #+0]
   \   00000012   50F48060           ORRS     R0,R0,#0x400
   \   00000016   ....               LDR.N    R1,??DataTable16_19  ;; 0x400ff00c
   \   00000018   0860               STR      R0,[R1, #+0]
    241           
    242              disable_irq(70);
   \   0000001A   4620               MOVS     R0,#+70
   \   0000001C   ........           BL       disable_irq
    243          }
   \   00000020   01BD               POP      {R0,PC}          ;; return

   \                                 In section .text, align 2, keep-with-next
    244          void Timer3( unsigned int timeout )
    245          {
    246              PIT_LDVAL3 = timeout;
   \                     Timer3:
   \   00000000   ....               LDR.N    R1,??DataTable16_23  ;; 0x40037130
   \   00000002   0860               STR      R0,[R1, #+0]
    247              
    248              PIT_TCTRL3 |= PIT_TCTRL_TEN_MASK |PIT_TCTRL_TIE_MASK;
   \   00000004   ....               LDR.N    R0,??DataTable16_24  ;; 0x40037138
   \   00000006   0068               LDR      R0,[R0, #+0]
   \   00000008   50F00300           ORRS     R0,R0,#0x3
   \   0000000C   ....               LDR.N    R1,??DataTable16_24  ;; 0x40037138
   \   0000000E   0860               STR      R0,[R1, #+0]
    249              //enable_irq(71);
    250          }
   \   00000010   7047               BX       LR               ;; return

   \                                 In section .text, align 2, keep-with-next
    251          void PIT3_ISR(void)
    252          {
   \                     PIT3_ISR:
   \   00000000   80B5               PUSH     {R7,LR}
    253              PIT_TFLG3 |= PIT_TFLG_TIF_MASK;
   \   00000002   ....               LDR.N    R0,??DataTable16_25  ;; 0x4003713c
   \   00000004   0068               LDR      R0,[R0, #+0]
   \   00000006   50F00100           ORRS     R0,R0,#0x1
   \   0000000A   ....               LDR.N    R1,??DataTable16_25  ;; 0x4003713c
   \   0000000C   0860               STR      R0,[R1, #+0]
    254              GPIOA_PTOR |= 1 << 10;
   \   0000000E   ....               LDR.N    R0,??DataTable16_19  ;; 0x400ff00c
   \   00000010   0068               LDR      R0,[R0, #+0]
   \   00000012   50F48060           ORRS     R0,R0,#0x400
   \   00000016   ....               LDR.N    R1,??DataTable16_19  ;; 0x400ff00c
   \   00000018   0860               STR      R0,[R1, #+0]
    255              
    256              disable_irq(71);
   \   0000001A   4720               MOVS     R0,#+71
   \   0000001C   ........           BL       disable_irq
    257          }
   \   00000020   01BD               POP      {R0,PC}          ;; return
    258          
    259          //设置系统主频率

   \                                 In section .text, align 2, keep-with-next
    260          void Pll_Init(void)		//pll = 外部晶振(50) / MCG_C5_PRDIV *  MCG_C6_VDIV
    261          {
    262          	uint32_t temp_reg;
    263          
    264          	//这里处在默认的FEI模式
    265          	//首先移动到FBE模式
    266          
    267          	MCG_C2 = 0;  
   \                     Pll_Init:
   \   00000000   ....               LDR.N    R0,??DataTable16_26  ;; 0x40064001
   \   00000002   0021               MOVS     R1,#+0
   \   00000004   0170               STRB     R1,[R0, #+0]
    268          	//MCG_C2 = MCG_C2_RANGE(2) | MCG_C2_HGO_MASK | MCG_C2_EREFS_MASK;
    269          	//初始化晶振后释放锁定状态的振荡器和GPIO
    270          	SIM_SCGC4 |= SIM_SCGC4_LLWU_MASK;
   \   00000006   ....               LDR.N    R0,??DataTable16_27  ;; 0x40048034
   \   00000008   0068               LDR      R0,[R0, #+0]
   \   0000000A   50F08050           ORRS     R0,R0,#0x10000000
   \   0000000E   ....               LDR.N    R1,??DataTable16_27  ;; 0x40048034
   \   00000010   0860               STR      R0,[R1, #+0]
    271          	LLWU_CS |= LLWU_CS_ACKISO_MASK;
   \   00000012   ....               LDR.N    R0,??DataTable16_28  ;; 0x4007c008
   \   00000014   0078               LDRB     R0,[R0, #+0]
   \   00000016   50F08000           ORRS     R0,R0,#0x80
   \   0000001A   ....               LDR.N    R1,??DataTable16_28  ;; 0x4007c008
   \   0000001C   0870               STRB     R0,[R1, #+0]
    272          
    273          
    274          	MCG_C1 = MCG_C1_CLKS(2) | MCG_C1_FRDIV(3);
   \   0000001E   ....               LDR.N    R0,??DataTable16_29  ;; 0x40064000
   \   00000020   9821               MOVS     R1,#+152
   \   00000022   0170               STRB     R1,[R0, #+0]
    275          	//选择外部晶振，参考分频器，清IREFS来启动外部晶振
    276          	//011 If RANGE = 0, Divide Factor is 8; for all other RANGE values, Divide Factor is 256.
    277          
    278          	//等待晶振稳定	    
    279          	//while (!(MCG_S & MCG_S_OSCINIT_MASK)){}              //等待锁相环初始化结束
    280          	while (MCG_S & MCG_S_IREFST_MASK){}                  //等待时钟切换到外部参考时钟
   \                     ??Pll_Init_0:
   \   00000024   ....               LDR.N    R0,??DataTable16_30  ;; 0x40064006
   \   00000026   0078               LDRB     R0,[R0, #+0]
   \   00000028   C006               LSLS     R0,R0,#+27
   \   0000002A   FBD4               BMI.N    ??Pll_Init_0
    281          	while (((MCG_S & MCG_S_CLKST_MASK) >> MCG_S_CLKST_SHIFT) != 0x2){}
   \                     ??Pll_Init_1:
   \   0000002C   ....               LDR.N    R0,??DataTable16_30  ;; 0x40064006
   \   0000002E   0078               LDRB     R0,[R0, #+0]
   \   00000030   C0F38100           UBFX     R0,R0,#+2,#+2
   \   00000034   C0B2               UXTB     R0,R0            ;; ZeroExt  R0,R0,#+24,#+24
   \   00000036   0228               CMP      R0,#+2
   \   00000038   F8D1               BNE.N    ??Pll_Init_1
    282          
    283          	//进入FBE模式,
    284          
    285          	MCG_C5 = MCG_C5_PRDIV(0x13);       //	1 - 25    
   \   0000003A   ....               LDR.N    R0,??DataTable16_31  ;; 0x40064004
   \   0000003C   1321               MOVS     R1,#+19
   \   0000003E   0170               STRB     R1,[R0, #+0]
    286          	//Selects the amount to divide down the external reference clock for the PLL.
    287          	//The resulting frequency must be in the range of 2 MHz to 4 MHz. 
    288          	//	00000 1 01000  9 10000 17 11000 25
    289          	//	00001 2 01001 10 10001 18 11001 Reserved
    290          	//	00010 3 01010 11 10010 19 11010 Reserved
    291          	//	00011 4 01011 12 10011 20 11011 Reserved
    292          	//	00100 5 01100 13 10100 21 11100 Reserved
    293          	//	00101 6 01101 14 10101 22 11101 Reserved
    294          	//	00110 7 01110 15 10110 23 11110 Reserved
    295          	//	00111 8 01111 16 10111 24 11111 Reserved
    296          
    297          	//确保MCG_C6处于复位状态，禁止LOLIE、PLL、和时钟控制器，清PLL VCO分频器
    298          	MCG_C6 = 0x0;
   \   00000040   ....               LDR.N    R0,??DataTable16_32  ;; 0x40064005
   \   00000042   0021               MOVS     R1,#+0
   \   00000044   0170               STRB     R1,[R0, #+0]
    299          
    300          	//保存FMC_PFAPR当前的值
    301          	temp_reg = FMC_PFAPR;
   \   00000046   ....               LDR.N    R0,??DataTable16_33  ;; 0x4001f000
   \   00000048   0068               LDR      R0,[R0, #+0]
    302          
    303          	//通过M&PFD置位M0PFD来禁止预取功能
    304          	FMC_PFAPR |= FMC_PFAPR_M7PFD_MASK | FMC_PFAPR_M6PFD_MASK | FMC_PFAPR_M5PFD_MASK
    305          		| FMC_PFAPR_M4PFD_MASK | FMC_PFAPR_M3PFD_MASK | FMC_PFAPR_M2PFD_MASK
    306          		| FMC_PFAPR_M1PFD_MASK | FMC_PFAPR_M0PFD_MASK;  
   \   0000004A   ....               LDR.N    R1,??DataTable16_33  ;; 0x4001f000
   \   0000004C   0968               LDR      R1,[R1, #+0]
   \   0000004E   51F47F01           ORRS     R1,R1,#0xFF0000
   \   00000052   ....               LDR.N    R2,??DataTable16_33  ;; 0x4001f000
   \   00000054   1160               STR      R1,[R2, #+0]
    307          
    308          	///设置系统分频器
    309          	//MCG=PLL, core = MCG, bus = MCG/2, FlexBus = MCG/2, Flash clock= MCG/4
    310          	SIM_CLKDIV1 = SIM_CLKDIV1_OUTDIV1(0) | SIM_CLKDIV1_OUTDIV2(1) 
    311          		| SIM_CLKDIV1_OUTDIV3(1) | SIM_CLKDIV1_OUTDIV4(3);  
   \   00000056   ....               LDR.N    R1,??DataTable16_34  ;; 0x40048044
   \   00000058   ....               LDR.N    R2,??DataTable16_35  ;; 0x1130000
   \   0000005A   0A60               STR      R2,[R1, #+0]
    312          
    313          	//OUTDIV1  sets the divide value for the core/system clock		1 - 16
    314          	//0x00 == 1
    315          	//0x0F == 16
    316          	//OUTDIV2 sets the divide value for the peripheral clock		1 - 16
    317          	//0x00 == 1
    318          	//0x0F == 16
    319          	//OUTDIV3 sets the divide value for the FlexBus clock driven to the external pin (FB_CLK).
    320          	//1 - 16
    321          	//OUTDIV4 sets the divide value for the flash clock				1 - 16
    322          
    323          	//重新存FMC_PFAPR的原始值
    324          	FMC_PFAPR = temp_reg; 
   \   0000005C   ....               LDR.N    R1,??DataTable16_33  ;; 0x4001f000
   \   0000005E   0860               STR      R0,[R1, #+0]
    325          
    326          	//设置VCO分频器，使能PLL为100MHz, LOLIE=0, PLLS=1, CME=0, VDIV=26
    327          	MCG_C6 = MCG_C6_PLLS_MASK | MCG_C6_VDIV(0x10);	//	24 - 55
   \   00000060   ....               LDR.N    R0,??DataTable16_32  ;; 0x40064005
   \   00000062   5021               MOVS     R1,#+80
   \   00000064   0170               STRB     R1,[R0, #+0]
    328          	/*
    329          	Generate an interrupt request on loss of lock.
    330          	PLL Select
    331          	Controls whether the PLL or FLL output is selected as the MCG source when CLKS[1:0]=00. If the PLLS
    332          	bit is cleared and PLLCLKEN is not set, the PLL is disabled in all modes. If the PLLS is set, the FLL is
    333          	disabled in all modes.
    334          	0 FLL is selected.
    335          	1 PLL is selected (PRDIV need to be programmed to the correct divider to generate a PLL reference
    336          	clock in the range of 2 - 4 MHz prior to setting the PLLS bit).
    337          	*/
    338          	//	00000 24	 01000 32	 10000 40	 11000 48
    339          	//	00001 25	 01001 33	 10001 41	 11001 49
    340          	//	00010 26	 01010 34	 10010 42	 11010 50
    341          	//	00011 27	 01011 35	 10011 43	 11011 51
    342          	//	00100 28	 01100 36	 10100 44	 11100 52
    343          	//	00101 29	 01101 37	 10101 45	 11101 53
    344          	//	00110 30	 01110 38	 10110 46	 11110 54
    345          	//	00111 31	 01111 39	 10111 47	 11111 55
    346          
    347          	while (!(MCG_S & MCG_S_PLLST_MASK)){}; // wait for PLL status bit to set    
   \                     ??Pll_Init_2:
   \   00000066   ....               LDR.N    R0,??DataTable16_30  ;; 0x40064006
   \   00000068   0078               LDRB     R0,[R0, #+0]
   \   0000006A   8006               LSLS     R0,R0,#+26
   \   0000006C   FBD5               BPL.N    ??Pll_Init_2
    348          	while (!(MCG_S & MCG_S_LOCK_MASK)){}; // Wait for LOCK bit to set    
   \                     ??Pll_Init_3:
   \   0000006E   ....               LDR.N    R0,??DataTable16_30  ;; 0x40064006
   \   00000070   0078               LDRB     R0,[R0, #+0]
   \   00000072   4006               LSLS     R0,R0,#+25
   \   00000074   FBD5               BPL.N    ??Pll_Init_3
    349          
    350          	//进入PBE模式    
    351          	//通过清零CLKS位来进入PEE模式
    352          	// CLKS=0, FRDIV=3, IREFS=0, IRCLKEN=0, IREFSTEN=0
    353          	MCG_C1 &= ~MCG_C1_CLKS_MASK;
   \   00000076   ....               LDR.N    R0,??DataTable16_29  ;; 0x40064000
   \   00000078   0078               LDRB     R0,[R0, #+0]
   \   0000007A   10F03F00           ANDS     R0,R0,#0x3F
   \   0000007E   ....               LDR.N    R1,??DataTable16_29  ;; 0x40064000
   \   00000080   0870               STRB     R0,[R1, #+0]
    354          
    355          	//等待时钟状态位更新
    356          	while (((MCG_S & MCG_S_CLKST_MASK) >> MCG_S_CLKST_SHIFT) != 0x3){};
   \                     ??Pll_Init_4:
   \   00000082   ....               LDR.N    R0,??DataTable16_30  ;; 0x40064006
   \   00000084   0078               LDRB     R0,[R0, #+0]
   \   00000086   C0F38100           UBFX     R0,R0,#+2,#+2
   \   0000008A   C0B2               UXTB     R0,R0            ;; ZeroExt  R0,R0,#+24,#+24
   \   0000008C   0328               CMP      R0,#+3
   \   0000008E   F8D1               BNE.N    ??Pll_Init_4
    357          	//SIM_CLKDIV2 |= SIM_CLKDIV2_USBDIV(1);    
    358          
    359          	/*	//时钟检测
    360          	//设置跟踪时钟为内核时钟
    361          	SIM_SOPT2 |= SIM_SOPT2_TRACECLKSEL_MASK; 
    362          	//在PTA6引脚上使能TRACE_CLKOU功能
    363          	PORTA_PCR6 = ( PORT_PCR_MUX(0x7));  
    364          	*/
    365          }
   \   00000090   7047               BX       LR               ;; return
    366          
    367          

   \                                 In section .text, align 4, keep-with-next
    368          void main(void)
    369          {	
   \                     main:
   \   00000000   30B5               PUSH     {R4,R5,LR}
   \   00000002   85B0               SUB      SP,SP,#+20
    370          	int i=0;
   \   00000004   0024               MOVS     R4,#+0
    371                  uint8 info[9];
    372                  DRESULT sd_state;    //SD卡操作状态
    373                  //SD数据缓存
    374                  uint8  sdhc_dat_buffer1[512];      
    375                  uint8  sdhc_dat_buffer2[512];
    376                  //FAT32文件系统变量
    377                  uint8 CreateTime[6]={0x09,0x07,0x0d,0x0d,0x14,0x0f};
   \   00000006   03A8               ADD      R0,SP,#+12
   \   00000008   ........           ADR.W    R1,`?<Constant {9, 7, 13, 13, 20, 15}>`
   \   0000000C   0CC9               LDM      R1!,{R2,R3}
   \   0000000E   0CC0               STM      R0!,{R2,R3}
   \   00000010   0839               SUBS     R1,R1,#+8
   \   00000012   0838               SUBS     R0,R0,#+8
    378                         
    379                  info[0]=0x53;
   \   00000014   5320               MOVS     R0,#+83
   \   00000016   8DF80000           STRB     R0,[SP, #+0]
    380                  info[1]=0x65;
   \   0000001A   6520               MOVS     R0,#+101
   \   0000001C   8DF80100           STRB     R0,[SP, #+1]
    381                  info[2]=0x72;
   \   00000020   7220               MOVS     R0,#+114
   \   00000022   8DF80200           STRB     R0,[SP, #+2]
    382                  info[3]=0x61;
   \   00000026   6120               MOVS     R0,#+97
   \   00000028   8DF80300           STRB     R0,[SP, #+3]
    383                  info[4]=0x70;
   \   0000002C   7020               MOVS     R0,#+112
   \   0000002E   8DF80400           STRB     R0,[SP, #+4]
    384                  info[5]=0x68;
   \   00000032   6820               MOVS     R0,#+104
   \   00000034   8DF80500           STRB     R0,[SP, #+5]
    385                  info[6]=0x6C;
   \   00000038   6C20               MOVS     R0,#+108
   \   0000003A   8DF80600           STRB     R0,[SP, #+6]
    386                  info[7]=0x69;
   \   0000003E   6920               MOVS     R0,#+105
   \   00000040   8DF80700           STRB     R0,[SP, #+7]
    387                  info[8]= 0;
   \   00000044   0020               MOVS     R0,#+0
   \   00000046   8DF80800           STRB     R0,[SP, #+8]
    388                  
    389                  Pll_Init();   //设置系统主频率 
   \   0000004A   ........           BL       Pll_Init
    390          	//关中断
    391                  DisableInterrupts;
   \   0000004E   72B6               CPSID i         
    392                  //SDHC模式初始化
    393                  sd_state = disk_initialize(0);
   \   00000050   0020               MOVS     R0,#+0
   \   00000052   ........           BL       disk_initialize
   \   00000056   0500               MOVS     R5,R0
    394                  //FAT32 struct init
    395                  pArg=&FatArg;
   \   00000058   ....               LDR.N    R0,??DataTable16_36
   \   0000005A   ....               LDR.N    R1,??DataTable16_37
   \   0000005C   0160               STR      R1,[R0, #+0]
    396                  FAT32_Init();
   \   0000005E   ........           BL       FAT32_Init
    397                  InitColorTable(ColorTable);
   \   00000062   ....               LDR.N    R0,??DataTable16_38
   \   00000064   ........           BL       InitColorTable
    398                  
    399          	//开启各个GPIO口的转换时钟
    400          	SIM_SCGC5 = SIM_SCGC5_PORTA_MASK | SIM_SCGC5_PORTB_MASK | SIM_SCGC5_PORTC_MASK | SIM_SCGC5_PORTD_MASK | SIM_SCGC5_PORTE_MASK;
   \   00000068   ....               LDR.N    R0,??DataTable16_39  ;; 0x40048038
   \   0000006A   4FF47851           MOV      R1,#+15872
   \   0000006E   0160               STR      R1,[R0, #+0]
    401          	
    402          	//禁止总中断
    403                  // PIT_Init();
    404                  //PORTA_PCR10 = 1 << 8 | 1 << 5;
    405          	//GPIOA_PDDR |= 1 << 10;
    406                  
    407                  //开中断
    408                  EnableInterrupts;
   \   00000070   62B6               CPSIE i         
    409                  //enable_irq(70);
    410                  //PIT_TCTRL2 |= PIT_TCTRL_TIE_MASK;
    411          	//IRQ_Init();
    412                  //Timer_Init();
    413                  
    414          	for(;;)  
    415          	{	
    416                     /* gpline=0;                          //一场中行计数清零
    417                      gpflag=0;                          //清除场采集结束标志
    418                      gppoint=0;
    419                       
    420                      PORTD_PCR8 = 1 << 8 ;
    421          	    GPIOD_PDDR |= 0 << 8;
    422                      while((GPIOD_PDIR & (~GPIO_PDIR_PDI(8)))!= 0x0) ;
    423                      
    424                      Timer0(0x15A0);
    425                  
    426                      PIT_TCTRL0 |= PIT_TCTRL_TEN_MASK;
    427                      enable_irq(68);
    428                      
    429                      while(GPflag==0);   
    430                      
    431                      
    432                      
    433                      
    434          	    PORTA_PCR10 = 1 << 8 | 1 << 5;
    435          	    GPIOA_PDDR |= 1 << 10;*/
    436          		//用户添加自己的代码
    437                      //enable_irq(90);
    438                      
    439                      
    440                      
    441                      
    442                      //disable_irq(90);
    443                    
    444                   
    445                      if (RES_OK == sd_state&&i==0/**/)
   \                     ??main_0:
   \   00000072   EDB2               UXTB     R5,R5            ;; ZeroExt  R5,R5,#+24,#+24
   \   00000074   002D               CMP      R5,#+0
   \   00000076   FCD1               BNE.N    ??main_0
   \   00000078   002C               CMP      R4,#+0
   \   0000007A   FAD1               BNE.N    ??main_0
    446                      {
    447                          if(FAT32_Create_File(&FileInfo,"\\1.txt",CreateTime)==0){
   \   0000007C   03AA               ADD      R2,SP,#+12
   \   0000007E   ........           ADR.W    R1,`?<Constant "\\\\1.txt">`
   \   00000082   ....               LDR.N    R0,??DataTable16_40
   \   00000084   ........           BL       FAT32_Create_File
   \   00000088   0028               CMP      R0,#+0
   \   0000008A   04D1               BNE.N    ??main_1
    448          	          FAT32_Add_Dat(&FileInfo,sizeof(info),info);
   \   0000008C   00AA               ADD      R2,SP,#+0
   \   0000008E   0921               MOVS     R1,#+9
   \   00000090   ....               LDR.N    R0,??DataTable16_40
   \   00000092   ........           BL       FAT32_Add_Dat
    449                          }/*
    450                          if(FAT32_Create_File(&FileInfo,"\\2.bmp",CreateTime)==0){
    451          	          BmpBIT8Write(&FileInfo,"\\6.bmp",80,70,pic,ColorTable);
    452                          }*/
    453                          
    454                          i++;
   \                     ??main_1:
   \   00000096   641C               ADDS     R4,R4,#+1
   \   00000098   EBE7               B.N      ??main_0
    455                      }
    456                    
    457          	}	
    458          }

   \                                 In section .text, align 4, keep-with-next
   \                     ??DataTable16:
   \   00000000   3C900440           DC32     0x4004903c

   \                                 In section .text, align 4, keep-with-next
   \                     ??DataTable16_1:
   \   00000000   00B00440           DC32     0x4004b000

   \                                 In section .text, align 4, keep-with-next
   \                     ??DataTable16_2:
   \   00000000   94F00F40           DC32     0x400ff094

   \                                 In section .text, align 4, keep-with-next
   \                     ??DataTable16_3:
   \   00000000   A0900440           DC32     0x400490a0

   \                                 In section .text, align 4, keep-with-next
   \                     ??DataTable16_4:
   \   00000000   ........           DC32     LieCount

   \                                 In section .text, align 4, keep-with-next
   \                     ??DataTable16_5:
   \   00000000   ........           DC32     CLie

   \                                 In section .text, align 4, keep-with-next
   \                     ??DataTable16_6:
   \   00000000   ........           DC32     RowCount

   \                                 In section .text, align 4, keep-with-next
   \                     ??DataTable16_7:
   \   00000000   ........           DC32     Pic

   \                                 In section .text, align 4, keep-with-next
   \                     ??DataTable16_8:
   \   00000000   90F00F40           DC32     0x400ff090

   \                                 In section .text, align 4, keep-with-next
   \                     ??DataTable16_9:
   \   00000000   ........           DC32     GPflag

   \                                 In section .text, align 4, keep-with-next
   \                     ??DataTable16_10:
   \   00000000   08710340           DC32     0x40037108

   \                                 In section .text, align 4, keep-with-next
   \                     ??DataTable16_11:
   \   00000000   A0C00440           DC32     0x4004c0a0

   \                                 In section .text, align 4, keep-with-next
   \                     ??DataTable16_12:
   \   00000000   3C800440           DC32     0x4004803c

   \                                 In section .text, align 4, keep-with-next
   \                     ??DataTable16_13:
   \   00000000   00700340           DC32     0x40037000

   \                                 In section .text, align 4, keep-with-next
   \                     ??DataTable16_14:
   \   00000000   00710340           DC32     0x40037100

   \                                 In section .text, align 4, keep-with-next
   \                     ??DataTable16_15:
   \   00000000   0C710340           DC32     0x4003710c

   \                                 In section .text, align 4, keep-with-next
   \                     ??DataTable16_16:
   \   00000000   10710340           DC32     0x40037110

   \                                 In section .text, align 4, keep-with-next
   \                     ??DataTable16_17:
   \   00000000   18710340           DC32     0x40037118

   \                                 In section .text, align 4, keep-with-next
   \                     ??DataTable16_18:
   \   00000000   1C710340           DC32     0x4003711c

   \                                 In section .text, align 4, keep-with-next
   \                     ??DataTable16_19:
   \   00000000   0CF00F40           DC32     0x400ff00c

   \                                 In section .text, align 4, keep-with-next
   \                     ??DataTable16_20:
   \   00000000   20710340           DC32     0x40037120

   \                                 In section .text, align 4, keep-with-next
   \                     ??DataTable16_21:
   \   00000000   28710340           DC32     0x40037128

   \                                 In section .text, align 4, keep-with-next
   \                     ??DataTable16_22:
   \   00000000   2C710340           DC32     0x4003712c

   \                                 In section .text, align 4, keep-with-next
   \                     ??DataTable16_23:
   \   00000000   30710340           DC32     0x40037130

   \                                 In section .text, align 4, keep-with-next
   \                     ??DataTable16_24:
   \   00000000   38710340           DC32     0x40037138

   \                                 In section .text, align 4, keep-with-next
   \                     ??DataTable16_25:
   \   00000000   3C710340           DC32     0x4003713c

   \                                 In section .text, align 4, keep-with-next
   \                     ??DataTable16_26:
   \   00000000   01400640           DC32     0x40064001

   \                                 In section .text, align 4, keep-with-next
   \                     ??DataTable16_27:
   \   00000000   34800440           DC32     0x40048034

   \                                 In section .text, align 4, keep-with-next
   \                     ??DataTable16_28:
   \   00000000   08C00740           DC32     0x4007c008

   \                                 In section .text, align 4, keep-with-next
   \                     ??DataTable16_29:
   \   00000000   00400640           DC32     0x40064000

   \                                 In section .text, align 4, keep-with-next
   \                     ??DataTable16_30:
   \   00000000   06400640           DC32     0x40064006

   \                                 In section .text, align 4, keep-with-next
   \                     ??DataTable16_31:
   \   00000000   04400640           DC32     0x40064004

   \                                 In section .text, align 4, keep-with-next
   \                     ??DataTable16_32:
   \   00000000   05400640           DC32     0x40064005

   \                                 In section .text, align 4, keep-with-next
   \                     ??DataTable16_33:
   \   00000000   00F00140           DC32     0x4001f000

   \                                 In section .text, align 4, keep-with-next
   \                     ??DataTable16_34:
   \   00000000   44800440           DC32     0x40048044

   \                                 In section .text, align 4, keep-with-next
   \                     ??DataTable16_35:
   \   00000000   00001301           DC32     0x1130000

   \                                 In section .text, align 4, keep-with-next
   \                     ??DataTable16_36:
   \   00000000   ........           DC32     pArg

   \                                 In section .text, align 4, keep-with-next
   \                     ??DataTable16_37:
   \   00000000   ........           DC32     FatArg

   \                                 In section .text, align 4, keep-with-next
   \                     ??DataTable16_38:
   \   00000000   ........           DC32     ColorTable

   \                                 In section .text, align 4, keep-with-next
   \                     ??DataTable16_39:
   \   00000000   38800440           DC32     0x40048038

   \                                 In section .text, align 4, keep-with-next
   \                     ??DataTable16_40:
   \   00000000   ........           DC32     FileInfo

   \                                 In section .text, align 4, keep-with-next
   \                     `?<Constant {9, 7, 13, 13, 20, 15}>`:
   \   00000000                      ; Initializer data, 8 bytes
   \   00000000   09070D0D140F       DC8 9, 7, 13, 13, 20, 15, 0, 0
   \              0000        

   \                                 In section .text, align 4, keep-with-next
   \                     `?<Constant "\\\\1.txt">`:
   \   00000000                      ; Initializer data, 8 bytes
   \   00000000   5C312E747874       DC8 92, 49, 46, 116, 120, 116, 0, 0
   \              0000        
    459          
    460          
    461          
    462          

   Maximum stack usage in bytes:

     Function   .cstack
     --------   -------
     IRQ_Init        0
     ISR_PTA         8
     ISR_PTD         8
     PIT0_ISR        8
     PIT1_ISR        8
     PIT2_ISR        8
     PIT3_ISR        8
     Pll_Init        0
     Timer0          0
     Timer1          0
     Timer2          0
     Timer3          0
     Timer_Init      0
     delay           0
     main           32


   Section sizes:

     Function/Label                     Bytes
     --------------                     -----
     ucTimeDelayFlag                       4
     gpline                                1
     gpflag                                1
     gppoint                               1
     Pic                                6000
     CLie                                  4
     LieCount                              4
     RowCount                              4
     GPflag                                4
     temp                                  4
     GetPic                              244
     pArg                                  4
     FatArg                               32
     FileInfo                             64
     Dev_No                                1
     ColorTable                         1024
     pic                                4800
     delay                                22
     IRQ_Init                             38
     ISR_PTA                             154
     ISR_PTD                              46
     Timer_Init                           26
     Timer0                               18
     PIT0_ISR                             54
     Timer1                               18
     PIT1_ISR                             34
     Timer2                               18
     PIT2_ISR                             34
     Timer3                               18
     PIT3_ISR                             34
     Pll_Init                            146
     main                                154
     ??DataTable16                         4
     ??DataTable16_1                       4
     ??DataTable16_2                       4
     ??DataTable16_3                       4
     ??DataTable16_4                       4
     ??DataTable16_5                       4
     ??DataTable16_6                       4
     ??DataTable16_7                       4
     ??DataTable16_8                       4
     ??DataTable16_9                       4
     ??DataTable16_10                      4
     ??DataTable16_11                      4
     ??DataTable16_12                      4
     ??DataTable16_13                      4
     ??DataTable16_14                      4
     ??DataTable16_15                      4
     ??DataTable16_16                      4
     ??DataTable16_17                      4
     ??DataTable16_18                      4
     ??DataTable16_19                      4
     ??DataTable16_20                      4
     ??DataTable16_21                      4
     ??DataTable16_22                      4
     ??DataTable16_23                      4
     ??DataTable16_24                      4
     ??DataTable16_25                      4
     ??DataTable16_26                      4
     ??DataTable16_27                      4
     ??DataTable16_28                      4
     ??DataTable16_29                      4
     ??DataTable16_30                      4
     ??DataTable16_31                      4
     ??DataTable16_32                      4
     ??DataTable16_33                      4
     ??DataTable16_34                      4
     ??DataTable16_35                      4
     ??DataTable16_36                      4
     ??DataTable16_37                      4
     ??DataTable16_38                      4
     ??DataTable16_39                      4
     ??DataTable16_40                      4
     ?<Constant {9, 7, 13, 13, 20, 15}>    8
     ?<Constant "\\1.txt">                 8

 
 7 152 bytes in section .bss
 4 800 bytes in section .data
 1 238 bytes in section .text
 
  1 238 bytes of CODE memory
 11 952 bytes of DATA memory

Errors: none
Warnings: 5
